

Microchip MPLAB XC8 Assembler V2.40 build 20220703182018 
                                                                                               Mon May 01 22:55:43 2023

Microchip MPLAB XC8 C Compiler v2.40 (Free license) build 20220703182018 Og1 
     1                           	processor	18F25K22
     2                           	fnconf	rparam,??,?,0
     3                           	pagewidth 120
     4                           	opt	flic
     5                           	psect	smallconst,global,reloc=2,class=SMALLCONST,delta=1,noexec
     6                           	psect	cinit,global,reloc=2,class=CODE,delta=1
     7                           	psect	cstackCOMRAM,global,class=COMRAM,space=1,delta=1,lowdata,noexec
     8                           	psect	text0,global,reloc=2,class=CODE,delta=1
     9                           	psect	text1,global,reloc=2,class=CODE,delta=1
    10                           	psect	text2,global,reloc=2,class=CODE,delta=1
    11                           	psect	text3,global,reloc=2,class=CODE,delta=1
    12                           	psect	text4,global,reloc=2,class=CODE,delta=1
    13                           	psect	text5,global,reloc=2,class=CODE,delta=1
    14                           	psect	text6,global,reloc=2,class=CODE,delta=1
    15                           	psect	text7,global,reloc=2,class=CODE,delta=1
    16                           	psect	text8,global,reloc=2,class=CODE,delta=1
    17                           	psect	text9,global,reloc=2,class=CODE,delta=1
    18                           	psect	text10,global,reloc=2,class=CODE,delta=1
    19                           	psect	text11,global,reloc=2,class=CODE,delta=1
    20                           	psect	text12,global,reloc=2,class=CODE,delta=1
    21                           	psect	text13,global,reloc=2,class=CODE,delta=1
    22                           	psect	text14,global,reloc=2,class=CODE,delta=1
    23                           	psect	text15,global,reloc=2,class=CODE,delta=1
    24                           	psect	text16,global,reloc=2,class=CODE,delta=1
    25                           	psect	text17,global,reloc=2,class=CODE,delta=1
    26                           	psect	text18,global,reloc=2,class=CODE,delta=1
    27                           	psect	text19,global,reloc=2,class=CODE,delta=1
    28                           	psect	text20,global,reloc=2,class=CODE,delta=1
    29                           	psect	text21,global,reloc=2,class=CODE,delta=1
    30                           	psect	text22,global,reloc=2,class=CODE,delta=1
    31                           	psect	text23,global,reloc=2,class=CODE,delta=1
    32                           	psect	text24,global,reloc=2,class=CODE,delta=1
    33                           	psect	text25,global,reloc=2,class=CODE,delta=1
    34                           	psect	text26,global,reloc=2,class=CODE,delta=1
    35                           	psect	text27,global,reloc=2,class=CODE,delta=1
    36                           	psect	text28,global,reloc=2,class=CODE,delta=1
    37                           	psect	text29,global,reloc=2,class=CODE,delta=1
    38                           	psect	text30,global,reloc=2,class=CODE,delta=1
    39                           	psect	text31,global,reloc=2,class=CODE,delta=1
    40                           	psect	text32,global,reloc=2,class=CODE,delta=1
    41                           	psect	text33,global,reloc=2,class=CODE,delta=1
    42                           	psect	text34,global,reloc=2,class=CODE,delta=1
    43                           	psect	text35,global,reloc=2,class=CODE,delta=1
    44                           	psect	text36,global,reloc=2,class=CODE,delta=1
    45                           	psect	text37,global,reloc=2,class=CODE,delta=1
    46                           	psect	text38,global,reloc=2,class=CODE,delta=1
    47                           	psect	text39,global,reloc=2,class=CODE,delta=1
    48                           	psect	text40,global,reloc=2,class=CODE,delta=1
    49                           	psect	text41,global,reloc=2,class=CODE,delta=1
    50                           	psect	text42,global,reloc=2,class=CODE,delta=1
    51                           	psect	text43,global,reloc=2,class=CODE,delta=1
    52                           	psect	text44,global,reloc=2,class=CODE,delta=1
    53                           	psect	text45,global,reloc=2,class=CODE,delta=1
    54                           	psect	text46,global,reloc=2,class=CODE,delta=1
    55                           	psect	text47,global,reloc=2,class=CODE,delta=1
    56                           	psect	text48,global,reloc=2,class=CODE,delta=1
    57                           	psect	text49,global,reloc=2,class=CODE,delta=1
    58                           	psect	text50,global,reloc=2,class=CODE,delta=1
    59                           	psect	text51,global,reloc=2,class=CODE,delta=1
    60                           	psect	text52,global,reloc=2,class=CODE,delta=1
    61                           	psect	text53,global,reloc=2,class=CODE,delta=1
    62                           	psect	text54,global,reloc=2,class=CODE,delta=1
    63                           	psect	text55,global,reloc=2,class=CODE,delta=1
    64                           	psect	intsave_regs,global,class=BIGRAM,space=1,delta=1,noexec
    65                           	psect	rparam,global,class=COMRAM,space=1,delta=1,noexec
    66                           	psect	idloc,global,abs,ovrld,class=IDLOC,space=5,delta=1,noexec
    67                           	psect	config,global,abs,ovrld,class=CONFIG,space=4,delta=1,noexec
    68   000000                     
    69                           ; Version 2.20
    70                           ; Generated 05/05/2020 GMT
    71                           ; 
    72                           ; Copyright © 2020, Microchip Technology Inc. and its subsidiaries ("Microchip")
    73                           ; All rights reserved.
    74                           ; 
    75                           ; This software is developed by Microchip Technology Inc. and its subsidiaries ("Microch
      +                          ip").
    76                           ; 
    77                           ; Redistribution and use in source and binary forms, with or without modification, are
    78                           ; permitted provided that the following conditions are met:
    79                           ; 
    80                           ;     1. Redistributions of source code must retain the above copyright notice, this lis
      +                          t of
    81                           ;        conditions and the following disclaimer.
    82                           ; 
    83                           ;     2. Redistributions in binary form must reproduce the above copyright notice, this 
      +                          list
    84                           ;        of conditions and the following disclaimer in the documentation and/or other
    85                           ;        materials provided with the distribution.
    86                           ; 
    87                           ;     3. Microchip's name may not be used to endorse or promote products derived from th
      +                          is
    88                           ;        software without specific prior written permission.
    89                           ; 
    90                           ; THIS SOFTWARE IS PROVIDED BY MICROCHIP "AS IS" AND ANY EXPRESS OR IMPLIED WARRANTIES,
    91                           ; INCLUDING, BUT NOT LIMITED TO, THE IMPLIED WARRANTIES OF MERCHANTABILITY AND FITNESS F
      +                          OR
    92                           ; PURPOSE ARE DISCLAIMED.  IN NO EVENT SHALL MICROCHIP BE LIABLE FOR ANY DIRECT, INDIREC
      +                          T,
    93                           ; INCIDENTAL, SPECIAL, EXEMPLARY, OR CONSEQUENTIAL DAMAGES (INCLUDING BUT NOT LIMITED TO
    94                           ; PROCUREMENT OF SUBSTITUTE GOODS OR SERVICES; LOSS OF USE, DATA OR PROFITS; OR BUSINESS
    95                           ; INTERRUPTION) HOWSOEVER CAUSED AND ON ANY THEORY OF LIABILITY, WHETHER IN CONTRACT, ST
      +                          RICT
    96                           ; LIABILITY, OR TORT (INCLUDING NEGLIGENCE OR OTHERWISE) ARISING IN ANY WAY OUT OF THE U
      +                          SE OF
    97                           ; THIS SOFTWARE, EVEN IF ADVISED OF THE POSSIBILITY OF SUCH DAMAGE.
    98                           ; 
    99                           ; 
   100                           ; Code-generator required, PIC18F25K22 Definitions
   101                           ; 
   102                           ; SFR Addresses
   103   000000                     _ANSELB	set	3897
   104   000000                     _ANSELC	set	3898
   105   000000                     _TRISC	set	3988
   106   000000                     _T0CON	set	4053
   107   000000                     _PORTC	set	3970
   108   000000                     _LATC	set	3979
   109   000000                     _TRISB	set	3987
   110   000000                     _LATB	set	3978
   111   000000                     _TMR0	set	4054
   112                           
   113                           	psect	smallconst
   114   000600                     __psmallconst:
   115                           	callstack 0
   116   000600  00                 	db	0
   117   000601                     STR_2:
   118   000601  43                 	db	67	;'C'
   119   000602  41                 	db	65	;'A'
   120   000603  52                 	db	82	;'R'
   121   000604  44                 	db	68	;'D'
   122   000605  20                 	db	32
   123   000606  46                 	db	70	;'F'
   124   000607  4F                 	db	79	;'O'
   125   000608  55                 	db	85	;'U'
   126   000609  4E                 	db	78	;'N'
   127   00060A  44                 	db	68	;'D'
   128   00060B  00                 	db	0
   129   00060C                     STR_1:
   130   00060C  52                 	db	82	;'R'
   131   00060D  46                 	db	70	;'F'
   132   00060E  49                 	db	73	;'I'
   133   00060F  44                 	db	68	;'D'
   134   000610  20                 	db	32
   135   000611  52                 	db	82	;'R'
   136   000612  45                 	db	69	;'E'
   137   000613  41                 	db	65	;'A'
   138   000614  44                 	db	68	;'D'
   139   000615  59                 	db	89	;'Y'
   140   000616  00                 	db	0
   141   000617  00                 	db	0	; dummy byte at the end
   142   000000                     
   143                           ; #config settings
   144                           
   145                           	psect	cinit
   146   000F18                     __pcinit:
   147                           	callstack 0
   148   000F18                     start_initialization:
   149                           	callstack 0
   150   000F18                     __initialization:
   151                           	callstack 0
   152   000F18                     end_of_initialization:
   153                           	callstack 0
   154   000F18                     __end_of__initialization:
   155                           	callstack 0
   156   000F18  0E00               	movlw	low (__Lmediumconst shr (0+16))
   157   000F1A  6EF8               	movwf	tblptru,c
   158   000F1C  0100               	movlb	0
   159   000F1E  EF94  F004         	goto	_main	;jump to C main() function
   160                           
   161                           	psect	cstackCOMRAM
   162   000001                     __pcstackCOMRAM:
   163                           	callstack 0
   164   000001                     ??_SPI_Transfer_Byte_MSB_First:
   165   000001                     LCD_Write_Nibble_To_Data_Pins@val:
   166                           	callstack 0
   167                           
   168                           ; 1 bytes @ 0x0
   169   000001                     	ds	1
   170   000002                     ??_LCD_Write_Cmd:
   171   000002                     ??_LCD_Write_Data:
   172                           
   173                           ; 1 bytes @ 0x1
   174   000002                     	ds	1
   175   000003                     SPI_Transfer_Byte_MSB_First@val:
   176                           	callstack 0
   177   000003                     LCD_Write_Cmd@val:
   178                           	callstack 0
   179   000003                     LCD_Write_Data@val:
   180                           	callstack 0
   181                           
   182                           ; 1 bytes @ 0x2
   183   000003                     	ds	1
   184   000004                     ??_LCD_Clear:
   185   000004                     ??_LCD_Registers_Init:
   186   000004                     SPI_Transfer_Byte_MSB_First@data:
   187                           	callstack 0
   188   000004                     LCD_Write_String@str:
   189                           	callstack 0
   190                           
   191                           ; 2 bytes @ 0x3
   192   000004                     	ds	1
   193   000005                     SPI_Transfer_Byte_MSB_First@i:
   194                           	callstack 0
   195                           
   196                           ; 2 bytes @ 0x4
   197   000005                     	ds	1
   198   000006                     ??_LCD_Init:
   199   000006                     ??_LCD_Write_String:
   200                           
   201                           ; 1 bytes @ 0x5
   202   000006                     	ds	1
   203   000007                     SPI_Transfer@data:
   204                           	callstack 0
   205                           
   206                           ; 2 bytes @ 0x6
   207   000007                     	ds	2
   208   000009                     SPI_Transfer@len:
   209                           	callstack 0
   210                           
   211                           ; 1 bytes @ 0x8
   212   000009                     	ds	1
   213   00000A                     SPI_Transfer@i:
   214                           	callstack 0
   215                           
   216                           ; 1 bytes @ 0x9
   217   00000A                     	ds	1
   218   00000B                     MFRC522_Write_Register@val:
   219                           	callstack 0
   220   00000B                     MFRC522_Read_Register@addr:
   221                           	callstack 0
   222                           
   223                           ; 1 bytes @ 0xA
   224   00000B                     	ds	1
   225   00000C                     MFRC522_Write_Register@addr:
   226                           	callstack 0
   227   00000C                     MFRC522_Read_Register@data:
   228                           	callstack 0
   229                           
   230                           ; 2 bytes @ 0xB
   231   00000C                     	ds	1
   232   00000D                     MFRC522_Write_Register@data:
   233                           	callstack 0
   234                           
   235                           ; 2 bytes @ 0xC
   236   00000D                     	ds	2
   237   00000F                     MFRC522_Modify_Register_Bit@bit_pos:
   238                           	callstack 0
   239                           
   240                           ; 1 bytes @ 0xE
   241   00000F                     	ds	1
   242   000010                     MFRC522_Modify_Register_Bit@val:
   243                           	callstack 0
   244                           
   245                           ; 1 bytes @ 0xF
   246   000010                     	ds	1
   247   000011                     ??_MFRC522_Modify_Register_Bit:
   248                           
   249                           ; 1 bytes @ 0x10
   250   000011                     	ds	2
   251   000013                     MFRC522_Modify_Register_Bit@addr:
   252                           	callstack 0
   253                           
   254                           ; 1 bytes @ 0x12
   255   000013                     	ds	1
   256   000014                     MFRC522_Modify_Register_Bit@data:
   257                           	callstack 0
   258                           
   259                           ; 1 bytes @ 0x13
   260   000014                     	ds	1
   261   000015                     ??_MFRC522_Antenna_On:
   262   000015                     MFRC522_ToCard@sendData:
   263                           	callstack 0
   264                           
   265                           ; 2 bytes @ 0x14
   266   000015                     	ds	1
   267   000016                     MFRC522_Antenna_On@data:
   268                           	callstack 0
   269                           
   270                           ; 1 bytes @ 0x15
   271   000016                     	ds	1
   272   000017                     MFRC522_ToCard@sendLen:
   273                           	callstack 0
   274                           
   275                           ; 1 bytes @ 0x16
   276   000017                     	ds	1
   277   000018                     MFRC522_ToCard@backData:
   278                           	callstack 0
   279                           
   280                           ; 2 bytes @ 0x17
   281   000018                     	ds	2
   282   00001A                     MFRC522_ToCard@backLen:
   283                           	callstack 0
   284                           
   285                           ; 2 bytes @ 0x19
   286   00001A                     	ds	2
   287   00001C                     ??_MFRC522_ToCard:
   288                           
   289                           ; 1 bytes @ 0x1B
   290   00001C                     	ds	2
   291   00001E                     MFRC522_ToCard@waitIRq:
   292                           	callstack 0
   293                           
   294                           ; 1 bytes @ 0x1D
   295   00001E                     	ds	1
   296   00001F                     MFRC522_ToCard@status:
   297                           	callstack 0
   298                           
   299                           ; 1 bytes @ 0x1E
   300   00001F                     	ds	1
   301   000020                     MFRC522_ToCard@lastBits:
   302                           	callstack 0
   303                           
   304                           ; 1 bytes @ 0x1F
   305   000020                     	ds	1
   306   000021                     MFRC522_ToCard@irqEn:
   307                           	callstack 0
   308                           
   309                           ; 1 bytes @ 0x20
   310   000021                     	ds	1
   311   000022                     MFRC522_ToCard@command:
   312                           	callstack 0
   313                           
   314                           ; 1 bytes @ 0x21
   315   000022                     	ds	1
   316   000023                     MFRC522_ToCard@i:
   317                           	callstack 0
   318                           
   319                           ; 2 bytes @ 0x22
   320   000023                     	ds	2
   321   000025                     MFRC522_ToCard@n:
   322                           	callstack 0
   323                           
   324                           ; 1 bytes @ 0x24
   325   000025                     	ds	1
   326   000026                     MFRC522_Anticoll@serNum:
   327                           	callstack 0
   328   000026                     MFRC522_Request@TagType:
   329                           	callstack 0
   330                           
   331                           ; 2 bytes @ 0x25
   332   000026                     	ds	2
   333   000028                     MFRC522_Request@reqMode:
   334                           	callstack 0
   335                           
   336                           ; 1 bytes @ 0x27
   337   000028                     	ds	1
   338   000029                     MFRC522_Anticoll@serNumCheck:
   339                           	callstack 0
   340   000029                     MFRC522_Request@status:
   341                           	callstack 0
   342                           
   343                           ; 1 bytes @ 0x28
   344   000029                     	ds	1
   345   00002A                     MFRC522_Anticoll@unLen:
   346                           	callstack 0
   347   00002A                     MFRC522_Request@backBits:
   348                           	callstack 0
   349                           
   350                           ; 1 bytes @ 0x29
   351   00002A                     	ds	1
   352   00002B                     MFRC522_Anticoll@status:
   353                           	callstack 0
   354                           
   355                           ; 1 bytes @ 0x2A
   356   00002B                     	ds	1
   357   00002C                     MFRC522_Anticoll@i:
   358                           	callstack 0
   359                           
   360                           ; 1 bytes @ 0x2B
   361   00002C                     	ds	1
   362   00002D                     MFRC522_Detect_Tag@info:
   363                           	callstack 0
   364                           
   365                           ; 16 bytes @ 0x2C
   366   00002D                     	ds	16
   367   00003D                     MFRC522_Detect_Tag@status:
   368                           	callstack 0
   369                           
   370                           ; 1 bytes @ 0x3C
   371   00003D                     	ds	1
   372   00003E                     ??_main:
   373                           
   374                           ; 1 bytes @ 0x3D
   375   00003E                     	ds	2
   376   000040                     main@status:
   377                           	callstack 0
   378                           
   379                           ; 1 bytes @ 0x3F
   380   000040                     	ds	1
   381                           
   382 ;;
   383 ;;Main: autosize = 0, tempsize = 2, incstack = 0, save=0
   384 ;;
   385 ;; *************** function _main *****************
   386 ;; Defined at:
   387 ;;		line 15 in file "main.c"
   388 ;; Parameters:    Size  Location     Type
   389 ;;		None
   390 ;; Auto vars:     Size  Location     Type
   391 ;;  status          1   63[COMRAM] unsigned char 
   392 ;; Return value:  Size  Location     Type
   393 ;;                  1    wreg      void 
   394 ;; Registers used:
   395 ;;		wreg, fsr1l, fsr1h, fsr2l, fsr2h, status,2, status,0, tblptrl, tblptrh, tblptru, prodl, prodh, cstack
   396 ;; Tracked objects:
   397 ;;		On entry : 0/0
   398 ;;		On exit  : 0/0
   399 ;;		Unchanged: 0/0
   400 ;; Data sizes:     COMRAM   BANK0   BANK1   BANK2   BANK3   BANK4   BANK5
   401 ;;      Params:         0       0       0       0       0       0       0
   402 ;;      Locals:         1       0       0       0       0       0       0
   403 ;;      Temps:          2       0       0       0       0       0       0
   404 ;;      Totals:         3       0       0       0       0       0       0
   405 ;;Total ram usage:        3 bytes
   406 ;; Hardware stack levels required when called: 8
   407 ;; This function calls:
   408 ;;		_LCD_Clear
   409 ;;		_LCD_Init
   410 ;;		_LCD_Write_String
   411 ;;		_MFRC522_Detect_Tag
   412 ;;		_MFRC522_Init
   413 ;; This function is called by:
   414 ;;		Startup code after reset
   415 ;; This function uses a non-reentrant model
   416 ;;
   417                           
   418                           	psect	text0
   419   000928                     __ptext0:
   420                           	callstack 0
   421   000928                     _main:
   422                           	callstack 23
   423   000928                     
   424                           ;main.c: 16:     MFRC522_Init();
   425   000928  EC11  F006         	call	_MFRC522_Init	;wreg free
   426   00092C                     
   427                           ;main.c: 17:     LCD_Init();
   428   00092C  ECF9  F006         	call	_LCD_Init	;wreg free
   429   000930                     
   430                           ;main.c: 18:     _delay((unsigned long)((200)*(8000000UL/4000.0)));
   431   000930  0E03               	movlw	3
   432   000932  6E3F               	movwf	(??_main+1)^0,c
   433   000934  0E08               	movlw	8
   434   000936  6E3E               	movwf	??_main^0,c
   435   000938  0E77               	movlw	119
   436   00093A                     u697:
   437   00093A  2EE8               	decfsz	wreg,f,c
   438   00093C  D7FE               	bra	u697
   439   00093E  2E3E               	decfsz	??_main^0,f,c
   440   000940  D7FC               	bra	u697
   441   000942  2E3F               	decfsz	(??_main+1)^0,f,c
   442   000944  D7FA               	bra	u697
   443   000946  F000               	nop	
   444   000948                     
   445                           ;main.c: 19:     LCD_Write_String("RFID READY");
   446   000948  0E0C               	movlw	low STR_1
   447   00094A  6E04               	movwf	LCD_Write_String@str^0,c
   448   00094C  0E06               	movlw	high STR_1
   449   00094E  6E05               	movwf	(LCD_Write_String@str+1)^0,c
   450   000950  EC59  F006         	call	_LCD_Write_String	;wreg free
   451   000954                     l1719:
   452                           
   453                           ;main.c: 22:         uint8_t status = MFRC522_Detect_Tag();
   454   000954  ECDD  F006         	call	_MFRC522_Detect_Tag	;wreg free
   455   000958  6E40               	movwf	main@status^0,c
   456   00095A                     
   457                           ;main.c: 23:         if(status == 1){
   458   00095A  0440               	decf	main@status^0,w,c
   459   00095C  A4D8               	btfss	status,2,c
   460   00095E  EFB3  F004         	goto	u681
   461   000962  EFB5  F004         	goto	u680
   462   000966                     u681:
   463   000966  EFD5  F004         	goto	l1731
   464   00096A                     u680:
   465   00096A                     
   466                           ;main.c: 24:             LCD_Clear();
   467   00096A  EC6C  F007         	call	_LCD_Clear	;wreg free
   468   00096E                     
   469                           ;main.c: 25:             LCD_Write_String("CARD FOUND");
   470   00096E  0E01               	movlw	low STR_2
   471   000970  6E04               	movwf	LCD_Write_String@str^0,c
   472   000972  0E06               	movlw	high STR_2
   473   000974  6E05               	movwf	(LCD_Write_String@str+1)^0,c
   474   000976  EC59  F006         	call	_LCD_Write_String	;wreg free
   475   00097A                     
   476                           ;main.c: 26:             _delay((unsigned long)((5000)*(8000000UL/4000.0)));
   477   00097A  0E33               	movlw	51
   478   00097C  6E3F               	movwf	(??_main+1)^0,c
   479   00097E  0EBB               	movlw	187
   480   000980  6E3E               	movwf	??_main^0,c
   481   000982  0EE0               	movlw	224
   482   000984                     u707:
   483   000984  2EE8               	decfsz	wreg,f,c
   484   000986  D7FE               	bra	u707
   485   000988  2E3E               	decfsz	??_main^0,f,c
   486   00098A  D7FC               	bra	u707
   487   00098C  2E3F               	decfsz	(??_main+1)^0,f,c
   488   00098E  D7FA               	bra	u707
   489   000990                     
   490                           ;main.c: 27:             _delay((unsigned long)((5000)*(8000000UL/4000.0)));
   491   000990  0E33               	movlw	51
   492   000992  6E3F               	movwf	(??_main+1)^0,c
   493   000994  0EBB               	movlw	187
   494   000996  6E3E               	movwf	??_main^0,c
   495   000998  0EE0               	movlw	224
   496   00099A                     u717:
   497   00099A  2EE8               	decfsz	wreg,f,c
   498   00099C  D7FE               	bra	u717
   499   00099E  2E3E               	decfsz	??_main^0,f,c
   500   0009A0  D7FC               	bra	u717
   501   0009A2  2E3F               	decfsz	(??_main+1)^0,f,c
   502   0009A4  D7FA               	bra	u717
   503                           
   504                           ;main.c: 28:         }else{
   505   0009A6  EFD7  F004         	goto	l1733
   506   0009AA                     l1731:
   507                           
   508                           ;main.c: 29:             LCD_Clear();
   509   0009AA  EC6C  F007         	call	_LCD_Clear	;wreg free
   510   0009AE                     l1733:
   511                           
   512                           ;main.c: 32:         _delay((unsigned long)((50)*(8000000UL/4000.0)));
   513   0009AE  0E82               	movlw	130
   514   0009B0  6E3E               	movwf	??_main^0,c
   515   0009B2  0EDE               	movlw	222
   516   0009B4                     u727:
   517   0009B4  2EE8               	decfsz	wreg,f,c
   518   0009B6  D7FE               	bra	u727
   519   0009B8  2E3E               	decfsz	??_main^0,f,c
   520   0009BA  D7FC               	bra	u727
   521   0009BC  EFAA  F004         	goto	l1719
   522   0009C0  EF00  F000         	goto	start
   523   0009C4                     __end_of_main:
   524                           	callstack 0
   525                           
   526 ;; *************** function _MFRC522_Init *****************
   527 ;; Defined at:
   528 ;;		line 279 in file "mfrc522.c"
   529 ;; Parameters:    Size  Location     Type
   530 ;;		None
   531 ;; Auto vars:     Size  Location     Type
   532 ;;		None
   533 ;; Return value:  Size  Location     Type
   534 ;;                  1    wreg      void 
   535 ;; Registers used:
   536 ;;		wreg, fsr1l, fsr1h, fsr2l, fsr2h, status,2, status,0, cstack
   537 ;; Tracked objects:
   538 ;;		On entry : 0/0
   539 ;;		On exit  : 0/0
   540 ;;		Unchanged: 0/0
   541 ;; Data sizes:     COMRAM   BANK0   BANK1   BANK2   BANK3   BANK4   BANK5
   542 ;;      Params:         0       0       0       0       0       0       0
   543 ;;      Locals:         0       0       0       0       0       0       0
   544 ;;      Temps:          0       0       0       0       0       0       0
   545 ;;      Totals:         0       0       0       0       0       0       0
   546 ;;Total ram usage:        0 bytes
   547 ;; Hardware stack levels used: 1
   548 ;; Hardware stack levels required when called: 6
   549 ;; This function calls:
   550 ;;		_MFRC522_Antenna_On
   551 ;;		_MFRC522_Reset
   552 ;;		_MFRC522_Write_Register
   553 ;;		_SPI_Init
   554 ;; This function is called by:
   555 ;;		_main
   556 ;; This function uses a non-reentrant model
   557 ;;
   558                           
   559                           	psect	text1
   560   000C22                     __ptext1:
   561                           	callstack 0
   562   000C22                     _MFRC522_Init:
   563                           	callstack 24
   564   000C22                     
   565                           ;mfrc522.c: 282:     SPI_Init();
   566   000C22  EC91  F007         	call	_SPI_Init	;wreg free
   567   000C26                     
   568                           ;mfrc522.c: 283:     MFRC522_Reset();
   569   000C26  EC86  F007         	call	_MFRC522_Reset	;wreg free
   570   000C2A                     
   571                           ;mfrc522.c: 284:     MFRC522_Write_Register(0x2A, 0x8D);
   572   000C2A  0E8D               	movlw	141
   573   000C2C  6E0B               	movwf	MFRC522_Write_Register@val^0,c
   574   000C2E  0E2A               	movlw	42
   575   000C30  EC1E  F007         	call	_MFRC522_Write_Register
   576   000C34                     
   577                           ;mfrc522.c: 285:     MFRC522_Write_Register(0x2B, 0x3E);
   578   000C34  0E3E               	movlw	62
   579   000C36  6E0B               	movwf	MFRC522_Write_Register@val^0,c
   580   000C38  0E2B               	movlw	43
   581   000C3A  EC1E  F007         	call	_MFRC522_Write_Register
   582   000C3E                     
   583                           ;mfrc522.c: 286:     MFRC522_Write_Register(0x2D, 30);
   584   000C3E  0E1E               	movlw	30
   585   000C40  6E0B               	movwf	MFRC522_Write_Register@val^0,c
   586   000C42  0E2D               	movlw	45
   587   000C44  EC1E  F007         	call	_MFRC522_Write_Register
   588   000C48                     
   589                           ;mfrc522.c: 287:     MFRC522_Write_Register(0x2C, 0);
   590   000C48  0E00               	movlw	0
   591   000C4A  6E0B               	movwf	MFRC522_Write_Register@val^0,c
   592   000C4C  0E2C               	movlw	44
   593   000C4E  EC1E  F007         	call	_MFRC522_Write_Register
   594   000C52                     
   595                           ;mfrc522.c: 288:     MFRC522_Write_Register(0x15, 0x40);
   596   000C52  0E40               	movlw	64
   597   000C54  6E0B               	movwf	MFRC522_Write_Register@val^0,c
   598   000C56  0E15               	movlw	21
   599   000C58  EC1E  F007         	call	_MFRC522_Write_Register
   600   000C5C                     
   601                           ;mfrc522.c: 289:     MFRC522_Write_Register(0x11, 0x3D);
   602   000C5C  0E3D               	movlw	61
   603   000C5E  6E0B               	movwf	MFRC522_Write_Register@val^0,c
   604   000C60  0E11               	movlw	17
   605   000C62  EC1E  F007         	call	_MFRC522_Write_Register
   606   000C66                     
   607                           ;mfrc522.c: 290:     MFRC522_Antenna_On();
   608   000C66  ECBF  F006         	call	_MFRC522_Antenna_On	;wreg free
   609   000C6A  0012               	return		;funcret
   610   000C6C                     __end_of_MFRC522_Init:
   611                           	callstack 0
   612                           
   613 ;; *************** function _SPI_Init *****************
   614 ;; Defined at:
   615 ;;		line 164 in file "spi.c"
   616 ;; Parameters:    Size  Location     Type
   617 ;;		None
   618 ;; Auto vars:     Size  Location     Type
   619 ;;		None
   620 ;; Return value:  Size  Location     Type
   621 ;;                  1    wreg      void 
   622 ;; Registers used:
   623 ;;		wreg, status,2, status,0, cstack
   624 ;; Tracked objects:
   625 ;;		On entry : 0/0
   626 ;;		On exit  : 0/0
   627 ;;		Unchanged: 0/0
   628 ;; Data sizes:     COMRAM   BANK0   BANK1   BANK2   BANK3   BANK4   BANK5
   629 ;;      Params:         0       0       0       0       0       0       0
   630 ;;      Locals:         0       0       0       0       0       0       0
   631 ;;      Temps:          0       0       0       0       0       0       0
   632 ;;      Totals:         0       0       0       0       0       0       0
   633 ;;Total ram usage:        0 bytes
   634 ;; Hardware stack levels used: 1
   635 ;; Hardware stack levels required when called: 2
   636 ;; This function calls:
   637 ;;		_SPI_GPIO_Init
   638 ;;		_SPI_Timer_Init
   639 ;; This function is called by:
   640 ;;		_MFRC522_Init
   641 ;; This function uses a non-reentrant model
   642 ;;
   643                           
   644                           	psect	text2
   645   000F22                     __ptext2:
   646                           	callstack 0
   647   000F22                     _SPI_Init:
   648                           	callstack 27
   649   000F22                     
   650                           ;spi.c: 165:     SPI_GPIO_Init();
   651   000F22  EC4E  F007         	call	_SPI_GPIO_Init	;wreg free
   652   000F26                     
   653                           ;spi.c: 166:     SPI_Timer_Init();
   654   000F26  ECC2  F007         	call	_SPI_Timer_Init	;wreg free
   655   000F2A  0012               	return		;funcret
   656   000F2C                     __end_of_SPI_Init:
   657                           	callstack 0
   658                           
   659 ;; *************** function _SPI_Timer_Init *****************
   660 ;; Defined at:
   661 ;;		line 93 in file "spi.c"
   662 ;; Parameters:    Size  Location     Type
   663 ;;		None
   664 ;; Auto vars:     Size  Location     Type
   665 ;;		None
   666 ;; Return value:  Size  Location     Type
   667 ;;                  1    wreg      void 
   668 ;; Registers used:
   669 ;;		wreg, status,2
   670 ;; Tracked objects:
   671 ;;		On entry : 0/0
   672 ;;		On exit  : 0/0
   673 ;;		Unchanged: 0/0
   674 ;; Data sizes:     COMRAM   BANK0   BANK1   BANK2   BANK3   BANK4   BANK5
   675 ;;      Params:         0       0       0       0       0       0       0
   676 ;;      Locals:         0       0       0       0       0       0       0
   677 ;;      Temps:          0       0       0       0       0       0       0
   678 ;;      Totals:         0       0       0       0       0       0       0
   679 ;;Total ram usage:        0 bytes
   680 ;; Hardware stack levels used: 1
   681 ;; This function calls:
   682 ;;		Nothing
   683 ;; This function is called by:
   684 ;;		_SPI_Init
   685 ;; This function uses a non-reentrant model
   686 ;;
   687                           
   688                           	psect	text3
   689   000F84                     __ptext3:
   690                           	callstack 0
   691   000F84                     _SPI_Timer_Init:
   692                           	callstack 28
   693   000F84                     
   694                           ;spi.c: 94:     T0CON = (1<<7);
   695   000F84  0E80               	movlw	128
   696   000F86  6ED5               	movwf	213,c	;volatile
   697   000F88  0012               	return		;funcret
   698   000F8A                     __end_of_SPI_Timer_Init:
   699                           	callstack 0
   700                           
   701 ;; *************** function _SPI_GPIO_Init *****************
   702 ;; Defined at:
   703 ;;		line 83 in file "spi.c"
   704 ;; Parameters:    Size  Location     Type
   705 ;;		None
   706 ;; Auto vars:     Size  Location     Type
   707 ;;		None
   708 ;; Return value:  Size  Location     Type
   709 ;;                  1    wreg      void 
   710 ;; Registers used:
   711 ;;		status,2, status,0, cstack
   712 ;; Tracked objects:
   713 ;;		On entry : 0/0
   714 ;;		On exit  : 0/0
   715 ;;		Unchanged: 0/0
   716 ;; Data sizes:     COMRAM   BANK0   BANK1   BANK2   BANK3   BANK4   BANK5
   717 ;;      Params:         0       0       0       0       0       0       0
   718 ;;      Locals:         0       0       0       0       0       0       0
   719 ;;      Temps:          0       0       0       0       0       0       0
   720 ;;      Totals:         0       0       0       0       0       0       0
   721 ;;Total ram usage:        0 bytes
   722 ;; Hardware stack levels used: 1
   723 ;; Hardware stack levels required when called: 1
   724 ;; This function calls:
   725 ;;		_SPI_CS_Output
   726 ;;		_SPI_CS_Output_High
   727 ;;		_SPI_MISO_Input
   728 ;;		_SPI_MOSI_Output
   729 ;;		_SPI_MOSI_Output_Low
   730 ;;		_SPI_SCK_Output
   731 ;;		_SPI_SCK_Output_Low
   732 ;; This function is called by:
   733 ;;		_SPI_Init
   734 ;; This function uses a non-reentrant model
   735 ;;
   736                           
   737                           	psect	text4
   738   000E9C                     __ptext4:
   739                           	callstack 0
   740   000E9C                     _SPI_GPIO_Init:
   741                           	callstack 27
   742   000E9C                     
   743                           ;spi.c: 84:     SPI_SCK_Output();
   744   000E9C  EC96  F007         	call	_SPI_SCK_Output	;wreg free
   745                           
   746                           ;spi.c: 85:     SPI_SCK_Output_Low();
   747   000EA0  ECC5  F007         	call	_SPI_SCK_Output_Low	;wreg free
   748                           
   749                           ;spi.c: 86:     SPI_MISO_Input();
   750   000EA4  EC9E  F007         	call	_SPI_MISO_Input	;wreg free
   751                           
   752                           ;spi.c: 87:     SPI_MOSI_Output();
   753   000EA8  EC9A  F007         	call	_SPI_MOSI_Output	;wreg free
   754                           
   755                           ;spi.c: 88:     SPI_MOSI_Output_Low();
   756   000EAC  ECC9  F007         	call	_SPI_MOSI_Output_Low	;wreg free
   757                           
   758                           ;spi.c: 89:     SPI_CS_Output();
   759   000EB0  ECA2  F007         	call	_SPI_CS_Output	;wreg free
   760                           
   761                           ;spi.c: 90:     SPI_CS_Output_High();
   762   000EB4  ECCF  F007         	call	_SPI_CS_Output_High	;wreg free
   763   000EB8  0012               	return		;funcret
   764   000EBA                     __end_of_SPI_GPIO_Init:
   765                           	callstack 0
   766                           
   767 ;; *************** function _SPI_SCK_Output *****************
   768 ;; Defined at:
   769 ;;		line 31 in file "spi.c"
   770 ;; Parameters:    Size  Location     Type
   771 ;;		None
   772 ;; Auto vars:     Size  Location     Type
   773 ;;		None
   774 ;; Return value:  Size  Location     Type
   775 ;;                  1    wreg      void 
   776 ;; Registers used:
   777 ;;		status,2, status,0
   778 ;; Tracked objects:
   779 ;;		On entry : 0/0
   780 ;;		On exit  : 0/0
   781 ;;		Unchanged: 0/0
   782 ;; Data sizes:     COMRAM   BANK0   BANK1   BANK2   BANK3   BANK4   BANK5
   783 ;;      Params:         0       0       0       0       0       0       0
   784 ;;      Locals:         0       0       0       0       0       0       0
   785 ;;      Temps:          0       0       0       0       0       0       0
   786 ;;      Totals:         0       0       0       0       0       0       0
   787 ;;Total ram usage:        0 bytes
   788 ;; Hardware stack levels used: 1
   789 ;; This function calls:
   790 ;;		Nothing
   791 ;; This function is called by:
   792 ;;		_SPI_GPIO_Init
   793 ;; This function uses a non-reentrant model
   794 ;;
   795                           
   796                           	psect	text5
   797   000F2C                     __ptext5:
   798                           	callstack 0
   799   000F2C                     _SPI_SCK_Output:
   800                           	callstack 27
   801   000F2C                     
   802                           ;spi.c: 32:     TRISC&=~(1<<0x03U);
   803   000F2C  9694               	bcf	148,3,c	;volatile
   804                           
   805                           ;spi.c: 33:     ANSELC&=~(1<<0x03U);
   806   000F2E  010F               	movlb	15	; () banked
   807   000F30  973A               	bcf	58,3,b	;volatile
   808   000F32                     
   809                           ; BSR set to: 15
   810   000F32  0012               	return		;funcret
   811   000F34                     __end_of_SPI_SCK_Output:
   812                           	callstack 0
   813                           
   814 ;; *************** function _SPI_MOSI_Output *****************
   815 ;; Defined at:
   816 ;;		line 57 in file "spi.c"
   817 ;; Parameters:    Size  Location     Type
   818 ;;		None
   819 ;; Auto vars:     Size  Location     Type
   820 ;;		None
   821 ;; Return value:  Size  Location     Type
   822 ;;                  1    wreg      void 
   823 ;; Registers used:
   824 ;;		status,2, status,0
   825 ;; Tracked objects:
   826 ;;		On entry : 0/0
   827 ;;		On exit  : 0/0
   828 ;;		Unchanged: 0/0
   829 ;; Data sizes:     COMRAM   BANK0   BANK1   BANK2   BANK3   BANK4   BANK5
   830 ;;      Params:         0       0       0       0       0       0       0
   831 ;;      Locals:         0       0       0       0       0       0       0
   832 ;;      Temps:          0       0       0       0       0       0       0
   833 ;;      Totals:         0       0       0       0       0       0       0
   834 ;;Total ram usage:        0 bytes
   835 ;; Hardware stack levels used: 1
   836 ;; This function calls:
   837 ;;		Nothing
   838 ;; This function is called by:
   839 ;;		_SPI_GPIO_Init
   840 ;; This function uses a non-reentrant model
   841 ;;
   842                           
   843                           	psect	text6
   844   000F34                     __ptext6:
   845                           	callstack 0
   846   000F34                     _SPI_MOSI_Output:
   847                           	callstack 27
   848   000F34                     
   849                           ;spi.c: 58:     TRISC&=~(1<<0x05U);
   850   000F34  9A94               	bcf	148,5,c	;volatile
   851                           
   852                           ;spi.c: 59:     ANSELC&=~(1<<0x05U);
   853   000F36  010F               	movlb	15	; () banked
   854   000F38  9B3A               	bcf	58,5,b	;volatile
   855   000F3A                     
   856                           ; BSR set to: 15
   857   000F3A  0012               	return		;funcret
   858   000F3C                     __end_of_SPI_MOSI_Output:
   859                           	callstack 0
   860                           
   861 ;; *************** function _SPI_MISO_Input *****************
   862 ;; Defined at:
   863 ;;		line 44 in file "spi.c"
   864 ;; Parameters:    Size  Location     Type
   865 ;;		None
   866 ;; Auto vars:     Size  Location     Type
   867 ;;		None
   868 ;; Return value:  Size  Location     Type
   869 ;;                  1    wreg      void 
   870 ;; Registers used:
   871 ;;		status,2, status,0
   872 ;; Tracked objects:
   873 ;;		On entry : 0/0
   874 ;;		On exit  : 0/0
   875 ;;		Unchanged: 0/0
   876 ;; Data sizes:     COMRAM   BANK0   BANK1   BANK2   BANK3   BANK4   BANK5
   877 ;;      Params:         0       0       0       0       0       0       0
   878 ;;      Locals:         0       0       0       0       0       0       0
   879 ;;      Temps:          0       0       0       0       0       0       0
   880 ;;      Totals:         0       0       0       0       0       0       0
   881 ;;Total ram usage:        0 bytes
   882 ;; Hardware stack levels used: 1
   883 ;; This function calls:
   884 ;;		Nothing
   885 ;; This function is called by:
   886 ;;		_SPI_GPIO_Init
   887 ;; This function uses a non-reentrant model
   888 ;;
   889                           
   890                           	psect	text7
   891   000F3C                     __ptext7:
   892                           	callstack 0
   893   000F3C                     _SPI_MISO_Input:
   894                           	callstack 27
   895   000F3C                     
   896                           ;spi.c: 45:     TRISC|=(1<<0x04U);
   897   000F3C  8894               	bsf	148,4,c	;volatile
   898                           
   899                           ;spi.c: 46:     ANSELC&=~(1<<0x04U);
   900   000F3E  010F               	movlb	15	; () banked
   901   000F40  993A               	bcf	58,4,b	;volatile
   902   000F42                     
   903                           ; BSR set to: 15
   904   000F42  0012               	return		;funcret
   905   000F44                     __end_of_SPI_MISO_Input:
   906                           	callstack 0
   907                           
   908 ;; *************** function _SPI_CS_Output *****************
   909 ;; Defined at:
   910 ;;		line 70 in file "spi.c"
   911 ;; Parameters:    Size  Location     Type
   912 ;;		None
   913 ;; Auto vars:     Size  Location     Type
   914 ;;		None
   915 ;; Return value:  Size  Location     Type
   916 ;;                  1    wreg      void 
   917 ;; Registers used:
   918 ;;		status,2, status,0
   919 ;; Tracked objects:
   920 ;;		On entry : 0/0
   921 ;;		On exit  : 0/0
   922 ;;		Unchanged: 0/0
   923 ;; Data sizes:     COMRAM   BANK0   BANK1   BANK2   BANK3   BANK4   BANK5
   924 ;;      Params:         0       0       0       0       0       0       0
   925 ;;      Locals:         0       0       0       0       0       0       0
   926 ;;      Temps:          0       0       0       0       0       0       0
   927 ;;      Totals:         0       0       0       0       0       0       0
   928 ;;Total ram usage:        0 bytes
   929 ;; Hardware stack levels used: 1
   930 ;; This function calls:
   931 ;;		Nothing
   932 ;; This function is called by:
   933 ;;		_SPI_GPIO_Init
   934 ;; This function uses a non-reentrant model
   935 ;;
   936                           
   937                           	psect	text8
   938   000F44                     __ptext8:
   939                           	callstack 0
   940   000F44                     _SPI_CS_Output:
   941                           	callstack 27
   942   000F44                     
   943                           ;spi.c: 71:     TRISB&=~(1<<0x02U);
   944   000F44  9493               	bcf	147,2,c	;volatile
   945                           
   946                           ;spi.c: 72:     ANSELB&=~(1<<0x02U);
   947   000F46  010F               	movlb	15	; () banked
   948   000F48  9539               	bcf	57,2,b	;volatile
   949   000F4A                     
   950                           ; BSR set to: 15
   951   000F4A  0012               	return		;funcret
   952   000F4C                     __end_of_SPI_CS_Output:
   953                           	callstack 0
   954                           
   955 ;; *************** function _MFRC522_Reset *****************
   956 ;; Defined at:
   957 ;;		line 149 in file "mfrc522.c"
   958 ;; Parameters:    Size  Location     Type
   959 ;;		None
   960 ;; Auto vars:     Size  Location     Type
   961 ;;		None
   962 ;; Return value:  Size  Location     Type
   963 ;;                  1    wreg      void 
   964 ;; Registers used:
   965 ;;		wreg, fsr1l, fsr1h, fsr2l, fsr2h, status,2, status,0, cstack
   966 ;; Tracked objects:
   967 ;;		On entry : 0/0
   968 ;;		On exit  : 0/0
   969 ;;		Unchanged: 0/0
   970 ;; Data sizes:     COMRAM   BANK0   BANK1   BANK2   BANK3   BANK4   BANK5
   971 ;;      Params:         0       0       0       0       0       0       0
   972 ;;      Locals:         0       0       0       0       0       0       0
   973 ;;      Temps:          0       0       0       0       0       0       0
   974 ;;      Totals:         0       0       0       0       0       0       0
   975 ;;Total ram usage:        0 bytes
   976 ;; Hardware stack levels used: 1
   977 ;; Hardware stack levels required when called: 4
   978 ;; This function calls:
   979 ;;		_MFRC522_Write_Register
   980 ;; This function is called by:
   981 ;;		_MFRC522_Init
   982 ;; This function uses a non-reentrant model
   983 ;;
   984                           
   985                           	psect	text9
   986   000F0C                     __ptext9:
   987                           	callstack 0
   988   000F0C                     _MFRC522_Reset:
   989                           	callstack 25
   990   000F0C                     
   991                           ;mfrc522.c: 150:     MFRC522_Write_Register(0x01, 0x0F);
   992   000F0C  0E0F               	movlw	15
   993   000F0E  6E0B               	movwf	MFRC522_Write_Register@val^0,c
   994   000F10  0E01               	movlw	1
   995   000F12  EC1E  F007         	call	_MFRC522_Write_Register
   996   000F16  0012               	return		;funcret
   997   000F18                     __end_of_MFRC522_Reset:
   998                           	callstack 0
   999                           
  1000 ;; *************** function _MFRC522_Antenna_On *****************
  1001 ;; Defined at:
  1002 ;;		line 135 in file "mfrc522.c"
  1003 ;; Parameters:    Size  Location     Type
  1004 ;;		None
  1005 ;; Auto vars:     Size  Location     Type
  1006 ;;  data            1   21[COMRAM] unsigned char 
  1007 ;; Return value:  Size  Location     Type
  1008 ;;                  1    wreg      void 
  1009 ;; Registers used:
  1010 ;;		wreg, fsr1l, fsr1h, fsr2l, fsr2h, status,2, status,0, cstack
  1011 ;; Tracked objects:
  1012 ;;		On entry : 0/0
  1013 ;;		On exit  : 0/0
  1014 ;;		Unchanged: 0/0
  1015 ;; Data sizes:     COMRAM   BANK0   BANK1   BANK2   BANK3   BANK4   BANK5
  1016 ;;      Params:         0       0       0       0       0       0       0
  1017 ;;      Locals:         1       0       0       0       0       0       0
  1018 ;;      Temps:          1       0       0       0       0       0       0
  1019 ;;      Totals:         2       0       0       0       0       0       0
  1020 ;;Total ram usage:        2 bytes
  1021 ;; Hardware stack levels used: 1
  1022 ;; Hardware stack levels required when called: 5
  1023 ;; This function calls:
  1024 ;;		_MFRC522_Modify_Register_Bit
  1025 ;;		_MFRC522_Read_Register
  1026 ;; This function is called by:
  1027 ;;		_MFRC522_Init
  1028 ;; This function uses a non-reentrant model
  1029 ;;
  1030                           
  1031                           	psect	text10
  1032   000D7E                     __ptext10:
  1033                           	callstack 0
  1034   000D7E                     _MFRC522_Antenna_On:
  1035                           	callstack 24
  1036   000D7E                     
  1037                           ;mfrc522.c: 137:     data = MFRC522_Read_Register(0x14);
  1038   000D7E  0E14               	movlw	20
  1039   000D80  EC0C  F007         	call	_MFRC522_Read_Register
  1040   000D84  6E16               	movwf	MFRC522_Antenna_On@data^0,c
  1041   000D86                     
  1042                           ;mfrc522.c: 138:     if (!(data & 0x03)){
  1043   000D86  C016  F015         	movff	MFRC522_Antenna_On@data,??_MFRC522_Antenna_On
  1044   000D8A  0E03               	movlw	3
  1045   000D8C  1615               	andwf	??_MFRC522_Antenna_On^0,f,c
  1046   000D8E  A4D8               	btfss	status,2,c
  1047   000D90  EFCC  F006         	goto	u601
  1048   000D94  EFCE  F006         	goto	u600
  1049   000D98                     u601:
  1050   000D98  EFDC  F006         	goto	l136
  1051   000D9C                     u600:
  1052   000D9C                     
  1053                           ;mfrc522.c: 139:         MFRC522_Modify_Register_Bit(0x14, 0, 1);
  1054   000D9C  0E00               	movlw	0
  1055   000D9E  6E0F               	movwf	MFRC522_Modify_Register_Bit@bit_pos^0,c
  1056   000DA0  0E01               	movlw	1
  1057   000DA2  6E10               	movwf	MFRC522_Modify_Register_Bit@val^0,c
  1058   000DA4  0E14               	movlw	20
  1059   000DA6  EC6E  F005         	call	_MFRC522_Modify_Register_Bit
  1060                           
  1061                           ;mfrc522.c: 140:         MFRC522_Modify_Register_Bit(0x14, 1, 1);
  1062   000DAA  0E01               	movlw	1
  1063   000DAC  6E0F               	movwf	MFRC522_Modify_Register_Bit@bit_pos^0,c
  1064   000DAE  0E01               	movlw	1
  1065   000DB0  6E10               	movwf	MFRC522_Modify_Register_Bit@val^0,c
  1066   000DB2  0E14               	movlw	20
  1067   000DB4  EC6E  F005         	call	_MFRC522_Modify_Register_Bit
  1068   000DB8                     l136:
  1069   000DB8  0012               	return		;funcret
  1070   000DBA                     __end_of_MFRC522_Antenna_On:
  1071                           	callstack 0
  1072                           
  1073 ;; *************** function _MFRC522_Detect_Tag *****************
  1074 ;; Defined at:
  1075 ;;		line 268 in file "mfrc522.c"
  1076 ;; Parameters:    Size  Location     Type
  1077 ;;		None
  1078 ;; Auto vars:     Size  Location     Type
  1079 ;;  info           16   44[COMRAM] unsigned char [16]
  1080 ;;  status          1   60[COMRAM] unsigned char 
  1081 ;; Return value:  Size  Location     Type
  1082 ;;                  1    wreg      unsigned char 
  1083 ;; Registers used:
  1084 ;;		wreg, fsr1l, fsr1h, fsr2l, fsr2h, status,2, status,0, prodl, prodh, cstack
  1085 ;; Tracked objects:
  1086 ;;		On entry : 0/0
  1087 ;;		On exit  : 0/0
  1088 ;;		Unchanged: 0/0
  1089 ;; Data sizes:     COMRAM   BANK0   BANK1   BANK2   BANK3   BANK4   BANK5
  1090 ;;      Params:         0       0       0       0       0       0       0
  1091 ;;      Locals:        17       0       0       0       0       0       0
  1092 ;;      Temps:          0       0       0       0       0       0       0
  1093 ;;      Totals:        17       0       0       0       0       0       0
  1094 ;;Total ram usage:       17 bytes
  1095 ;; Hardware stack levels used: 1
  1096 ;; Hardware stack levels required when called: 7
  1097 ;; This function calls:
  1098 ;;		_MFRC522_Anticoll
  1099 ;;		_MFRC522_Request
  1100 ;; This function is called by:
  1101 ;;		_main
  1102 ;; This function uses a non-reentrant model
  1103 ;;
  1104                           
  1105                           	psect	text11
  1106   000DBA                     __ptext11:
  1107                           	callstack 0
  1108   000DBA                     _MFRC522_Detect_Tag:
  1109                           	callstack 23
  1110   000DBA                     
  1111                           ;mfrc522.c: 269:     uint8_t info[16];;mfrc522.c: 270:     uint8_t status = MFRC522_Requ
      +                          est(0x26, info);
  1112   000DBA  0E2D               	movlw	low MFRC522_Detect_Tag@info
  1113   000DBC  6E26               	movwf	MFRC522_Request@TagType^0,c
  1114   000DBE  0E00               	movlw	high MFRC522_Detect_Tag@info
  1115   000DC0  6E27               	movwf	(MFRC522_Request@TagType+1)^0,c
  1116   000DC2  0E26               	movlw	38
  1117   000DC4  ECDE  F005         	call	_MFRC522_Request
  1118   000DC8  6E3D               	movwf	MFRC522_Detect_Tag@status^0,c
  1119                           
  1120                           ;mfrc522.c: 271:     status = MFRC522_Anticoll(info);
  1121   000DCA  0E2D               	movlw	low MFRC522_Detect_Tag@info
  1122   000DCC  6E26               	movwf	MFRC522_Anticoll@serNum^0,c
  1123   000DCE  0E00               	movlw	high MFRC522_Detect_Tag@info
  1124   000DD0  6E27               	movwf	(MFRC522_Anticoll@serNum+1)^0,c
  1125   000DD2  EC3F  F004         	call	_MFRC522_Anticoll	;wreg free
  1126   000DD6  6E3D               	movwf	MFRC522_Detect_Tag@status^0,c
  1127   000DD8                     
  1128                           ;mfrc522.c: 272:     if(status == 0x00){
  1129   000DD8  503D               	movf	MFRC522_Detect_Tag@status^0,w,c
  1130   000DDA  A4D8               	btfss	status,2,c
  1131   000DDC  EFF2  F006         	goto	u671
  1132   000DE0  EFF4  F006         	goto	u670
  1133   000DE4                     u671:
  1134   000DE4  EFF7  F006         	goto	l1707
  1135   000DE8                     u670:
  1136   000DE8                     
  1137                           ;mfrc522.c: 273:         return 1;
  1138   000DE8  0E01               	movlw	1
  1139   000DEA  EFF8  F006         	goto	l187
  1140   000DEE                     l1707:
  1141                           
  1142                           ;mfrc522.c: 275:         return 0;
  1143   000DEE  0E00               	movlw	0
  1144   000DF0                     l187:
  1145   000DF0  0012               	return		;funcret
  1146   000DF2                     __end_of_MFRC522_Detect_Tag:
  1147                           	callstack 0
  1148                           
  1149 ;; *************** function _MFRC522_Request *****************
  1150 ;; Defined at:
  1151 ;;		line 253 in file "mfrc522.c"
  1152 ;; Parameters:    Size  Location     Type
  1153 ;;  reqMode         1    wreg     unsigned char 
  1154 ;;  TagType         2   37[COMRAM] PTR unsigned char 
  1155 ;;		 -> MFRC522_Detect_Tag@info(16), 
  1156 ;; Auto vars:     Size  Location     Type
  1157 ;;  reqMode         1   39[COMRAM] unsigned char 
  1158 ;;  backBits        1   41[COMRAM] unsigned char 
  1159 ;;  status          1   40[COMRAM] unsigned char 
  1160 ;; Return value:  Size  Location     Type
  1161 ;;                  1    wreg      unsigned char 
  1162 ;; Registers used:
  1163 ;;		wreg, fsr1l, fsr1h, fsr2l, fsr2h, status,2, status,0, prodl, prodh, cstack
  1164 ;; Tracked objects:
  1165 ;;		On entry : 0/0
  1166 ;;		On exit  : 0/0
  1167 ;;		Unchanged: 0/0
  1168 ;; Data sizes:     COMRAM   BANK0   BANK1   BANK2   BANK3   BANK4   BANK5
  1169 ;;      Params:         2       0       0       0       0       0       0
  1170 ;;      Locals:         3       0       0       0       0       0       0
  1171 ;;      Temps:          0       0       0       0       0       0       0
  1172 ;;      Totals:         5       0       0       0       0       0       0
  1173 ;;Total ram usage:        5 bytes
  1174 ;; Hardware stack levels used: 1
  1175 ;; Hardware stack levels required when called: 6
  1176 ;; This function calls:
  1177 ;;		_MFRC522_ToCard
  1178 ;;		_MFRC522_Write_Register
  1179 ;; This function is called by:
  1180 ;;		_MFRC522_Detect_Tag
  1181 ;; This function uses a non-reentrant model
  1182 ;;
  1183                           
  1184                           	psect	text12
  1185   000BBC                     __ptext12:
  1186                           	callstack 0
  1187   000BBC                     _MFRC522_Request:
  1188                           	callstack 23
  1189                           
  1190                           ;incstack = 0
  1191                           ;MFRC522_Request@reqMode stored from wreg
  1192   000BBC  6E28               	movwf	MFRC522_Request@reqMode^0,c
  1193   000BBE                     
  1194                           ;mfrc522.c: 254:     uint8_t status;;mfrc522.c: 255:     uint8_t backBits;;mfrc522.c: 25
      +                          7:     MFRC522_Write_Register(0x0D, 0x07);
  1195   000BBE  0E07               	movlw	7
  1196   000BC0  6E0B               	movwf	MFRC522_Write_Register@val^0,c
  1197   000BC2  0E0D               	movlw	13
  1198   000BC4  EC1E  F007         	call	_MFRC522_Write_Register
  1199   000BC8                     
  1200                           ;mfrc522.c: 259:     TagType[0] = reqMode;
  1201   000BC8  C026  FFD9         	movff	MFRC522_Request@TagType,fsr2l
  1202   000BCC  C027  FFDA         	movff	MFRC522_Request@TagType+1,fsr2h
  1203   000BD0  C028  FFDF         	movff	MFRC522_Request@reqMode,indf2
  1204   000BD4                     
  1205                           ;mfrc522.c: 260:     status = MFRC522_ToCard(0x0C, TagType, 1, TagType, &backBits);
  1206   000BD4  C026  F015         	movff	MFRC522_Request@TagType,MFRC522_ToCard@sendData
  1207   000BD8  C027  F016         	movff	MFRC522_Request@TagType+1,MFRC522_ToCard@sendData+1
  1208   000BDC  0E01               	movlw	1
  1209   000BDE  6E17               	movwf	MFRC522_ToCard@sendLen^0,c
  1210   000BE0  C026  F018         	movff	MFRC522_Request@TagType,MFRC522_ToCard@backData
  1211   000BE4  C027  F019         	movff	MFRC522_Request@TagType+1,MFRC522_ToCard@backData+1
  1212   000BE8  0E2A               	movlw	low MFRC522_Request@backBits
  1213   000BEA  6E1A               	movwf	MFRC522_ToCard@backLen^0,c
  1214   000BEC  0E00               	movlw	high MFRC522_Request@backBits
  1215   000BEE  6E1B               	movwf	(MFRC522_ToCard@backLen+1)^0,c
  1216   000BF0  0E0C               	movlw	12
  1217   000BF2  EC0C  F003         	call	_MFRC522_ToCard
  1218   000BF6  6E29               	movwf	MFRC522_Request@status^0,c
  1219   000BF8                     
  1220                           ;mfrc522.c: 262:     if ((status != 0x00) || (backBits != 0x10)){
  1221   000BF8  5029               	movf	MFRC522_Request@status^0,w,c
  1222   000BFA  A4D8               	btfss	status,2,c
  1223   000BFC  EF02  F006         	goto	u641
  1224   000C00  EF04  F006         	goto	u640
  1225   000C04                     u641:
  1226   000C04  EF0D  F006         	goto	l1665
  1227   000C08                     u640:
  1228   000C08  0E10               	movlw	16
  1229   000C0A  182A               	xorwf	MFRC522_Request@backBits^0,w,c
  1230   000C0C  B4D8               	btfsc	status,2,c
  1231   000C0E  EF0B  F006         	goto	u651
  1232   000C12  EF0D  F006         	goto	u650
  1233   000C16                     u651:
  1234   000C16  EF0F  F006         	goto	l180
  1235   000C1A                     u650:
  1236   000C1A                     l1665:
  1237                           
  1238                           ;mfrc522.c: 263:         status = 0x02;
  1239   000C1A  0E02               	movlw	2
  1240   000C1C  6E29               	movwf	MFRC522_Request@status^0,c
  1241   000C1E                     l180:
  1242                           
  1243                           ;mfrc522.c: 265:     return status;
  1244   000C1E  5029               	movf	MFRC522_Request@status^0,w,c
  1245   000C20  0012               	return		;funcret
  1246   000C22                     __end_of_MFRC522_Request:
  1247                           	callstack 0
  1248                           
  1249 ;; *************** function _MFRC522_Anticoll *****************
  1250 ;; Defined at:
  1251 ;;		line 232 in file "mfrc522.c"
  1252 ;; Parameters:    Size  Location     Type
  1253 ;;  serNum          2   37[COMRAM] PTR unsigned char 
  1254 ;;		 -> MFRC522_Detect_Tag@info(16), 
  1255 ;; Auto vars:     Size  Location     Type
  1256 ;;  i               1   43[COMRAM] unsigned char 
  1257 ;;  status          1   42[COMRAM] unsigned char 
  1258 ;;  unLen           1   41[COMRAM] unsigned char 
  1259 ;;  serNumCheck     1   40[COMRAM] unsigned char 
  1260 ;; Return value:  Size  Location     Type
  1261 ;;                  1    wreg      unsigned char 
  1262 ;; Registers used:
  1263 ;;		wreg, fsr1l, fsr1h, fsr2l, fsr2h, status,2, status,0, prodl, prodh, cstack
  1264 ;; Tracked objects:
  1265 ;;		On entry : 0/0
  1266 ;;		On exit  : 0/0
  1267 ;;		Unchanged: 0/0
  1268 ;; Data sizes:     COMRAM   BANK0   BANK1   BANK2   BANK3   BANK4   BANK5
  1269 ;;      Params:         2       0       0       0       0       0       0
  1270 ;;      Locals:         4       0       0       0       0       0       0
  1271 ;;      Temps:          1       0       0       0       0       0       0
  1272 ;;      Totals:         7       0       0       0       0       0       0
  1273 ;;Total ram usage:        7 bytes
  1274 ;; Hardware stack levels used: 1
  1275 ;; Hardware stack levels required when called: 6
  1276 ;; This function calls:
  1277 ;;		_MFRC522_ToCard
  1278 ;;		_MFRC522_Write_Register
  1279 ;; This function is called by:
  1280 ;;		_MFRC522_Detect_Tag
  1281 ;; This function uses a non-reentrant model
  1282 ;;
  1283                           
  1284                           	psect	text13
  1285   00087E                     __ptext13:
  1286                           	callstack 0
  1287   00087E                     _MFRC522_Anticoll:
  1288                           	callstack 23
  1289   00087E                     
  1290                           ;mfrc522.c: 233:     uint8_t status;;mfrc522.c: 234:     uint8_t i;;mfrc522.c: 235:     
      +                          uint8_t serNumCheck=0;
  1291   00087E  0E00               	movlw	0
  1292   000880  6E29               	movwf	MFRC522_Anticoll@serNumCheck^0,c
  1293   000882                     
  1294                           ;mfrc522.c: 236:     uint8_t unLen;;mfrc522.c: 237:     MFRC522_Write_Register(0x0D, 0x0
      +                          0);
  1295   000882  0E00               	movlw	0
  1296   000884  6E0B               	movwf	MFRC522_Write_Register@val^0,c
  1297   000886  0E0D               	movlw	13
  1298   000888  EC1E  F007         	call	_MFRC522_Write_Register
  1299   00088C                     
  1300                           ;mfrc522.c: 238:     serNum[0] = 0x93;
  1301   00088C  C026  FFD9         	movff	MFRC522_Anticoll@serNum,fsr2l
  1302   000890  C027  FFDA         	movff	MFRC522_Anticoll@serNum+1,fsr2h
  1303   000894  0E93               	movlw	147
  1304   000896  6EDF               	movwf	indf2,c
  1305   000898                     
  1306                           ;mfrc522.c: 239:     serNum[1] = 0x20;
  1307   000898  EE20 F001          	lfsr	2,1
  1308   00089C  5026               	movf	MFRC522_Anticoll@serNum^0,w,c
  1309   00089E  26D9               	addwf	fsr2l,f,c
  1310   0008A0  5027               	movf	(MFRC522_Anticoll@serNum+1)^0,w,c
  1311   0008A2  22DA               	addwfc	fsr2h,f,c
  1312   0008A4  0E20               	movlw	32
  1313   0008A6  6EDF               	movwf	indf2,c
  1314   0008A8                     
  1315                           ;mfrc522.c: 240:     status = MFRC522_ToCard(0x0C, serNum, 2, serNum, &unLen);
  1316   0008A8  C026  F015         	movff	MFRC522_Anticoll@serNum,MFRC522_ToCard@sendData
  1317   0008AC  C027  F016         	movff	MFRC522_Anticoll@serNum+1,MFRC522_ToCard@sendData+1
  1318   0008B0  0E02               	movlw	2
  1319   0008B2  6E17               	movwf	MFRC522_ToCard@sendLen^0,c
  1320   0008B4  C026  F018         	movff	MFRC522_Anticoll@serNum,MFRC522_ToCard@backData
  1321   0008B8  C027  F019         	movff	MFRC522_Anticoll@serNum+1,MFRC522_ToCard@backData+1
  1322   0008BC  0E2A               	movlw	low MFRC522_Anticoll@unLen
  1323   0008BE  6E1A               	movwf	MFRC522_ToCard@backLen^0,c
  1324   0008C0  0E00               	movlw	high MFRC522_Anticoll@unLen
  1325   0008C2  6E1B               	movwf	(MFRC522_ToCard@backLen+1)^0,c
  1326   0008C4  0E0C               	movlw	12
  1327   0008C6  EC0C  F003         	call	_MFRC522_ToCard
  1328   0008CA  6E2B               	movwf	MFRC522_Anticoll@status^0,c
  1329   0008CC                     
  1330                           ;mfrc522.c: 242:     if (status == 0x00){
  1331   0008CC  502B               	movf	MFRC522_Anticoll@status^0,w,c
  1332   0008CE  A4D8               	btfss	status,2,c
  1333   0008D0  EF6C  F004         	goto	u611
  1334   0008D4  EF6E  F004         	goto	u610
  1335   0008D8                     u611:
  1336   0008D8  EF92  F004         	goto	l173
  1337   0008DC                     u610:
  1338   0008DC                     
  1339                           ;mfrc522.c: 243:         for (i=0; i<4; i++){
  1340   0008DC  0E00               	movlw	0
  1341   0008DE  6E2C               	movwf	MFRC522_Anticoll@i^0,c
  1342   0008E0                     l1643:
  1343                           
  1344                           ;mfrc522.c: 244:             serNumCheck ^= serNum[i];
  1345   0008E0  502C               	movf	MFRC522_Anticoll@i^0,w,c
  1346   0008E2  2426               	addwf	MFRC522_Anticoll@serNum^0,w,c
  1347   0008E4  6ED9               	movwf	fsr2l,c
  1348   0008E6  0E00               	movlw	0
  1349   0008E8  2027               	addwfc	(MFRC522_Anticoll@serNum+1)^0,w,c
  1350   0008EA  6EDA               	movwf	fsr2h,c
  1351   0008EC  50DF               	movf	indf2,w,c
  1352   0008EE  1A29               	xorwf	MFRC522_Anticoll@serNumCheck^0,f,c
  1353   0008F0                     
  1354                           ;mfrc522.c: 245:         }
  1355   0008F0  2A2C               	incf	MFRC522_Anticoll@i^0,f,c
  1356   0008F2  0E03               	movlw	3
  1357   0008F4  642C               	cpfsgt	MFRC522_Anticoll@i^0,c
  1358   0008F6  EF7F  F004         	goto	u621
  1359   0008FA  EF81  F004         	goto	u620
  1360   0008FE                     u621:
  1361   0008FE  EF70  F004         	goto	l1643
  1362   000902                     u620:
  1363   000902                     
  1364                           ;mfrc522.c: 246:         if (serNumCheck != serNum[i]){
  1365   000902  502C               	movf	MFRC522_Anticoll@i^0,w,c
  1366   000904  2426               	addwf	MFRC522_Anticoll@serNum^0,w,c
  1367   000906  6ED9               	movwf	fsr2l,c
  1368   000908  0E00               	movlw	0
  1369   00090A  2027               	addwfc	(MFRC522_Anticoll@serNum+1)^0,w,c
  1370   00090C  6EDA               	movwf	fsr2h,c
  1371   00090E  5029               	movf	MFRC522_Anticoll@serNumCheck^0,w,c
  1372   000910  18DE               	xorwf	postinc2,w,c
  1373   000912  B4D8               	btfsc	status,2,c
  1374   000914  EF8E  F004         	goto	u631
  1375   000918  EF90  F004         	goto	u630
  1376   00091C                     u631:
  1377   00091C  EF92  F004         	goto	l173
  1378   000920                     u630:
  1379   000920                     
  1380                           ;mfrc522.c: 247:             status = 0x02;
  1381   000920  0E02               	movlw	2
  1382   000922  6E2B               	movwf	MFRC522_Anticoll@status^0,c
  1383   000924                     l173:
  1384                           
  1385                           ;mfrc522.c: 250:     return status;
  1386   000924  502B               	movf	MFRC522_Anticoll@status^0,w,c
  1387   000926  0012               	return		;funcret
  1388   000928                     __end_of_MFRC522_Anticoll:
  1389                           	callstack 0
  1390                           
  1391 ;; *************** function _MFRC522_ToCard *****************
  1392 ;; Defined at:
  1393 ;;		line 154 in file "mfrc522.c"
  1394 ;; Parameters:    Size  Location     Type
  1395 ;;  command         1    wreg     unsigned char 
  1396 ;;  sendData        2   20[COMRAM] PTR unsigned char 
  1397 ;;		 -> MFRC522_Detect_Tag@info(16), 
  1398 ;;  sendLen         1   22[COMRAM] unsigned char 
  1399 ;;  backData        2   23[COMRAM] PTR unsigned char 
  1400 ;;		 -> MFRC522_Detect_Tag@info(16), 
  1401 ;;  backLen         2   25[COMRAM] PTR unsigned char 
  1402 ;;		 -> MFRC522_Request@backBits(1), MFRC522_Anticoll@unLen(1), 
  1403 ;; Auto vars:     Size  Location     Type
  1404 ;;  command         1   33[COMRAM] unsigned char 
  1405 ;;  i               2   34[COMRAM] unsigned short 
  1406 ;;  n               1   36[COMRAM] unsigned char 
  1407 ;;  irqEn           1   32[COMRAM] unsigned char 
  1408 ;;  lastBits        1   31[COMRAM] unsigned char 
  1409 ;;  status          1   30[COMRAM] unsigned char 
  1410 ;;  waitIRq         1   29[COMRAM] unsigned char 
  1411 ;; Return value:  Size  Location     Type
  1412 ;;                  1    wreg      unsigned char 
  1413 ;; Registers used:
  1414 ;;		wreg, fsr1l, fsr1h, fsr2l, fsr2h, status,2, status,0, prodl, prodh, cstack
  1415 ;; Tracked objects:
  1416 ;;		On entry : 0/0
  1417 ;;		On exit  : 0/0
  1418 ;;		Unchanged: 0/0
  1419 ;; Data sizes:     COMRAM   BANK0   BANK1   BANK2   BANK3   BANK4   BANK5
  1420 ;;      Params:         7       0       0       0       0       0       0
  1421 ;;      Locals:         8       0       0       0       0       0       0
  1422 ;;      Temps:          2       0       0       0       0       0       0
  1423 ;;      Totals:        17       0       0       0       0       0       0
  1424 ;;Total ram usage:       17 bytes
  1425 ;; Hardware stack levels used: 1
  1426 ;; Hardware stack levels required when called: 5
  1427 ;; This function calls:
  1428 ;;		_MFRC522_Modify_Register_Bit
  1429 ;;		_MFRC522_Read_Register
  1430 ;;		_MFRC522_Write_Register
  1431 ;; This function is called by:
  1432 ;;		_MFRC522_Anticoll
  1433 ;;		_MFRC522_Request
  1434 ;; This function uses a non-reentrant model
  1435 ;;
  1436                           
  1437                           	psect	text14
  1438   000618                     __ptext14:
  1439                           	callstack 0
  1440   000618                     _MFRC522_ToCard:
  1441                           	callstack 23
  1442                           
  1443                           ;incstack = 0
  1444                           ;MFRC522_ToCard@command stored from wreg
  1445   000618  6E22               	movwf	MFRC522_ToCard@command^0,c
  1446   00061A                     
  1447                           ;mfrc522.c: 155:     uint8_t status = 0x02;
  1448   00061A  0E02               	movlw	2
  1449   00061C  6E1F               	movwf	MFRC522_ToCard@status^0,c
  1450                           
  1451                           ;mfrc522.c: 156:     uint8_t irqEn = 0x00;
  1452   00061E  0E00               	movlw	0
  1453   000620  6E21               	movwf	MFRC522_ToCard@irqEn^0,c
  1454                           
  1455                           ;mfrc522.c: 157:     uint8_t waitIRq = 0x00;
  1456   000622  0E00               	movlw	0
  1457   000624  6E1E               	movwf	MFRC522_ToCard@waitIRq^0,c
  1458                           
  1459                           ;mfrc522.c: 158:     uint8_t lastBits;;mfrc522.c: 159:     uint8_t n;;mfrc522.c: 160:   
      +                            uint16_t i;;mfrc522.c: 162:     switch (command){
  1460   000626  EF21  F003         	goto	l1541
  1461   00062A                     l1535:
  1462                           
  1463                           ;mfrc522.c: 164:         {;mfrc522.c: 165:             irqEn = 0x12;
  1464   00062A  0E12               	movlw	18
  1465   00062C  6E21               	movwf	MFRC522_ToCard@irqEn^0,c
  1466                           
  1467                           ;mfrc522.c: 166:             waitIRq = 0x10;
  1468   00062E  0E10               	movlw	16
  1469   000630  6E1E               	movwf	MFRC522_ToCard@waitIRq^0,c
  1470                           
  1471                           ;mfrc522.c: 167:             break;
  1472   000632  EF36  F003         	goto	l1543
  1473   000636                     l1537:
  1474                           
  1475                           ;mfrc522.c: 170:         {;mfrc522.c: 171:            irqEn = 0x77;
  1476   000636  0E77               	movlw	119
  1477   000638  6E21               	movwf	MFRC522_ToCard@irqEn^0,c
  1478                           
  1479                           ;mfrc522.c: 172:            waitIRq = 0x30;
  1480   00063A  0E30               	movlw	48
  1481   00063C  6E1E               	movwf	MFRC522_ToCard@waitIRq^0,c
  1482                           
  1483                           ;mfrc522.c: 173:            break;
  1484   00063E  EF36  F003         	goto	l1543
  1485   000642                     l1541:
  1486   000642  5022               	movf	MFRC522_ToCard@command^0,w,c
  1487   000644  6E1C               	movwf	??_MFRC522_ToCard^0,c
  1488   000646  6A1D               	clrf	(??_MFRC522_ToCard+1)^0,c
  1489                           
  1490                           ; Switch on 2 bytes has been partitioned into a top level switch of size 1, and 1 sub-sw
      +                          itches
  1491                           ; Switch size 1, requested type "simple"
  1492                           ; Number of cases is 1, Range of values is 0 to 0
  1493                           ; switch strategies available:
  1494                           ; Name         Instructions Cycles
  1495                           ; simple_byte            4     3 (average)
  1496                           ;	Chosen strategy is simple_byte
  1497   000648  501D               	movf	(??_MFRC522_ToCard+1)^0,w,c
  1498   00064A  0A00               	xorlw	0	; case 0
  1499   00064C  B4D8               	btfsc	status,2,c
  1500   00064E  EF2B  F003         	goto	l1757
  1501   000652  EF36  F003         	goto	l1543
  1502   000656                     l1757:
  1503                           
  1504                           ; Switch size 1, requested type "simple"
  1505                           ; Number of cases is 2, Range of values is 12 to 14
  1506                           ; switch strategies available:
  1507                           ; Name         Instructions Cycles
  1508                           ; simple_byte            7     4 (average)
  1509                           ;	Chosen strategy is simple_byte
  1510   000656  501C               	movf	??_MFRC522_ToCard^0,w,c
  1511   000658  0A0C               	xorlw	12	; case 12
  1512   00065A  B4D8               	btfsc	status,2,c
  1513   00065C  EF1B  F003         	goto	l1537
  1514   000660  0A02               	xorlw	2	; case 14
  1515   000662  B4D8               	btfsc	status,2,c
  1516   000664  EF15  F003         	goto	l1535
  1517   000668  EF36  F003         	goto	l1543
  1518   00066C                     l1543:
  1519                           
  1520                           ;mfrc522.c: 179:     MFRC522_Write_Register(0x02, irqEn|0x80);
  1521   00066C  5021               	movf	MFRC522_ToCard@irqEn^0,w,c
  1522   00066E  0980               	iorlw	128
  1523   000670  6E0B               	movwf	MFRC522_Write_Register@val^0,c
  1524   000672  0E02               	movlw	2
  1525   000674  EC1E  F007         	call	_MFRC522_Write_Register
  1526                           
  1527                           ;mfrc522.c: 180:     MFRC522_Modify_Register_Bit(0x04, 7, 0);
  1528   000678  0E07               	movlw	7
  1529   00067A  6E0F               	movwf	MFRC522_Modify_Register_Bit@bit_pos^0,c
  1530   00067C  0E00               	movlw	0
  1531   00067E  6E10               	movwf	MFRC522_Modify_Register_Bit@val^0,c
  1532   000680  0E04               	movlw	4
  1533   000682  EC6E  F005         	call	_MFRC522_Modify_Register_Bit
  1534                           
  1535                           ;mfrc522.c: 181:     MFRC522_Modify_Register_Bit(0x0A, 7, 1);
  1536   000686  0E07               	movlw	7
  1537   000688  6E0F               	movwf	MFRC522_Modify_Register_Bit@bit_pos^0,c
  1538   00068A  0E01               	movlw	1
  1539   00068C  6E10               	movwf	MFRC522_Modify_Register_Bit@val^0,c
  1540   00068E  0E0A               	movlw	10
  1541   000690  EC6E  F005         	call	_MFRC522_Modify_Register_Bit
  1542                           
  1543                           ;mfrc522.c: 182:     MFRC522_Write_Register(0x01, 0x00);
  1544   000694  0E00               	movlw	0
  1545   000696  6E0B               	movwf	MFRC522_Write_Register@val^0,c
  1546   000698  0E01               	movlw	1
  1547   00069A  EC1E  F007         	call	_MFRC522_Write_Register
  1548   00069E                     
  1549                           ;mfrc522.c: 183:     for (i=0; i<sendLen; i++){
  1550   00069E  0E00               	movlw	0
  1551   0006A0  6E24               	movwf	(MFRC522_ToCard@i+1)^0,c
  1552   0006A2  0E00               	movlw	0
  1553   0006A4  6E23               	movwf	MFRC522_ToCard@i^0,c
  1554   0006A6  EF62  F003         	goto	l1551
  1555   0006AA                     l1547:
  1556                           
  1557                           ;mfrc522.c: 184:         MFRC522_Write_Register(0x09, sendData[i]);
  1558   0006AA  5023               	movf	MFRC522_ToCard@i^0,w,c
  1559   0006AC  2415               	addwf	MFRC522_ToCard@sendData^0,w,c
  1560   0006AE  6ED9               	movwf	fsr2l,c
  1561   0006B0  5024               	movf	(MFRC522_ToCard@i+1)^0,w,c
  1562   0006B2  2016               	addwfc	(MFRC522_ToCard@sendData+1)^0,w,c
  1563   0006B4  6EDA               	movwf	fsr2h,c
  1564   0006B6  50DF               	movf	indf2,w,c
  1565   0006B8  6E0B               	movwf	MFRC522_Write_Register@val^0,c
  1566   0006BA  0E09               	movlw	9
  1567   0006BC  EC1E  F007         	call	_MFRC522_Write_Register
  1568   0006C0                     
  1569                           ;mfrc522.c: 185:     }
  1570   0006C0  4A23               	infsnz	MFRC522_ToCard@i^0,f,c
  1571   0006C2  2A24               	incf	(MFRC522_ToCard@i+1)^0,f,c
  1572   0006C4                     l1551:
  1573   0006C4  5017               	movf	MFRC522_ToCard@sendLen^0,w,c
  1574   0006C6  6E1C               	movwf	??_MFRC522_ToCard^0,c
  1575   0006C8  6A1D               	clrf	(??_MFRC522_ToCard+1)^0,c
  1576   0006CA  501C               	movf	??_MFRC522_ToCard^0,w,c
  1577   0006CC  5C23               	subwf	MFRC522_ToCard@i^0,w,c
  1578   0006CE  501D               	movf	(??_MFRC522_ToCard+1)^0,w,c
  1579   0006D0  5824               	subwfb	(MFRC522_ToCard@i+1)^0,w,c
  1580   0006D2  A0D8               	btfss	status,0,c
  1581   0006D4  EF6E  F003         	goto	u471
  1582   0006D8  EF70  F003         	goto	u470
  1583   0006DC                     u471:
  1584   0006DC  EF55  F003         	goto	l1547
  1585   0006E0                     u470:
  1586   0006E0                     
  1587                           ;mfrc522.c: 187:     MFRC522_Write_Register(0x01, command);
  1588   0006E0  C022  F00B         	movff	MFRC522_ToCard@command,MFRC522_Write_Register@val
  1589   0006E4  0E01               	movlw	1
  1590   0006E6  EC1E  F007         	call	_MFRC522_Write_Register
  1591   0006EA                     
  1592                           ;mfrc522.c: 188:     if (command == 0x0C){
  1593   0006EA  0E0C               	movlw	12
  1594   0006EC  1822               	xorwf	MFRC522_ToCard@command^0,w,c
  1595   0006EE  A4D8               	btfss	status,2,c
  1596   0006F0  EF7C  F003         	goto	u481
  1597   0006F4  EF7E  F003         	goto	u480
  1598   0006F8                     u481:
  1599   0006F8  EF85  F003         	goto	l1559
  1600   0006FC                     u480:
  1601   0006FC                     
  1602                           ;mfrc522.c: 189:         MFRC522_Modify_Register_Bit(0x0D, 7, 1);
  1603   0006FC  0E07               	movlw	7
  1604   0006FE  6E0F               	movwf	MFRC522_Modify_Register_Bit@bit_pos^0,c
  1605   000700  0E01               	movlw	1
  1606   000702  6E10               	movwf	MFRC522_Modify_Register_Bit@val^0,c
  1607   000704  0E0D               	movlw	13
  1608   000706  EC6E  F005         	call	_MFRC522_Modify_Register_Bit
  1609   00070A                     l1559:
  1610                           
  1611                           ;mfrc522.c: 192:     i = 2000;
  1612   00070A  0E07               	movlw	7
  1613   00070C  6E24               	movwf	(MFRC522_ToCard@i+1)^0,c
  1614   00070E  0ED0               	movlw	208
  1615   000710  6E23               	movwf	MFRC522_ToCard@i^0,c
  1616   000712                     l1561:
  1617                           
  1618                           ;mfrc522.c: 194:         n = MFRC522_Read_Register(0x04);
  1619   000712  0E04               	movlw	4
  1620   000714  EC0C  F007         	call	_MFRC522_Read_Register
  1621   000718  6E25               	movwf	MFRC522_ToCard@n^0,c
  1622   00071A                     
  1623                           ;mfrc522.c: 195:         i--;
  1624   00071A  0623               	decf	MFRC522_ToCard@i^0,f,c
  1625   00071C  A0D8               	btfss	status,0,c
  1626   00071E  0624               	decf	(MFRC522_ToCard@i+1)^0,f,c
  1627   000720                     
  1628                           ;mfrc522.c: 196:     }
  1629   000720  5023               	movf	MFRC522_ToCard@i^0,w,c
  1630   000722  1024               	iorwf	(MFRC522_ToCard@i+1)^0,w,c
  1631   000724  B4D8               	btfsc	status,2,c
  1632   000726  EF97  F003         	goto	u491
  1633   00072A  EF99  F003         	goto	u490
  1634   00072E                     u491:
  1635   00072E  EFAA  F003         	goto	l1571
  1636   000732                     u490:
  1637   000732  B025               	btfsc	MFRC522_ToCard@n^0,0,c
  1638   000734  EF9E  F003         	goto	u501
  1639   000738  EFA0  F003         	goto	u500
  1640   00073C                     u501:
  1641   00073C  EFAA  F003         	goto	l1571
  1642   000740                     u500:
  1643   000740  5025               	movf	MFRC522_ToCard@n^0,w,c
  1644   000742  141E               	andwf	MFRC522_ToCard@waitIRq^0,w,c
  1645   000744  0900               	iorlw	0
  1646   000746  B4D8               	btfsc	status,2,c
  1647   000748  EFA8  F003         	goto	u511
  1648   00074C  EFAA  F003         	goto	u510
  1649   000750                     u511:
  1650   000750  EF89  F003         	goto	l1561
  1651   000754                     u510:
  1652   000754                     l1571:
  1653                           
  1654                           ;mfrc522.c: 198:     MFRC522_Modify_Register_Bit(0x0D, 7, 0);
  1655   000754  0E07               	movlw	7
  1656   000756  6E0F               	movwf	MFRC522_Modify_Register_Bit@bit_pos^0,c
  1657   000758  0E00               	movlw	0
  1658   00075A  6E10               	movwf	MFRC522_Modify_Register_Bit@val^0,c
  1659   00075C  0E0D               	movlw	13
  1660   00075E  EC6E  F005         	call	_MFRC522_Modify_Register_Bit
  1661   000762                     
  1662                           ;mfrc522.c: 199:     if (i != 0){
  1663   000762  5023               	movf	MFRC522_ToCard@i^0,w,c
  1664   000764  1024               	iorwf	(MFRC522_ToCard@i+1)^0,w,c
  1665   000766  B4D8               	btfsc	status,2,c
  1666   000768  EFB8  F003         	goto	u521
  1667   00076C  EFBA  F003         	goto	u520
  1668   000770                     u521:
  1669   000770  EF3D  F004         	goto	l158
  1670   000774                     u520:
  1671   000774                     
  1672                           ;mfrc522.c: 200:         if(!(MFRC522_Read_Register(0x06) & 0x1B)){
  1673   000774  0E06               	movlw	6
  1674   000776  EC0C  F007         	call	_MFRC522_Read_Register
  1675   00077A  6E1C               	movwf	??_MFRC522_ToCard^0,c
  1676   00077C  0E1B               	movlw	27
  1677   00077E  161C               	andwf	??_MFRC522_ToCard^0,f,c
  1678   000780  A4D8               	btfss	status,2,c
  1679   000782  EFC5  F003         	goto	u531
  1680   000786  EFC7  F003         	goto	u530
  1681   00078A                     u531:
  1682   00078A  EF3B  F004         	goto	l1607
  1683   00078E                     u530:
  1684   00078E                     
  1685                           ;mfrc522.c: 201:             status = 0x00;
  1686   00078E  0E00               	movlw	0
  1687   000790  6E1F               	movwf	MFRC522_ToCard@status^0,c
  1688   000792                     
  1689                           ;mfrc522.c: 202:             if (n & irqEn & 0x01){
  1690   000792  5025               	movf	MFRC522_ToCard@n^0,w,c
  1691   000794  1421               	andwf	MFRC522_ToCard@irqEn^0,w,c
  1692   000796  6E1C               	movwf	??_MFRC522_ToCard^0,c
  1693   000798  A01C               	btfss	??_MFRC522_ToCard^0,0,c
  1694   00079A  EFD1  F003         	goto	u541
  1695   00079E  EFD3  F003         	goto	u540
  1696   0007A2                     u541:
  1697   0007A2  EFD5  F003         	goto	l1583
  1698   0007A6                     u540:
  1699   0007A6                     
  1700                           ;mfrc522.c: 203:               status = 0x01;
  1701   0007A6  0E01               	movlw	1
  1702   0007A8  6E1F               	movwf	MFRC522_ToCard@status^0,c
  1703   0007AA                     l1583:
  1704                           
  1705                           ;mfrc522.c: 205:             if (command == 0x0C){
  1706   0007AA  0E0C               	movlw	12
  1707   0007AC  1822               	xorwf	MFRC522_ToCard@command^0,w,c
  1708   0007AE  A4D8               	btfss	status,2,c
  1709   0007B0  EFDC  F003         	goto	u551
  1710   0007B4  EFDE  F003         	goto	u550
  1711   0007B8                     u551:
  1712   0007B8  EF3D  F004         	goto	l158
  1713   0007BC                     u550:
  1714   0007BC                     
  1715                           ;mfrc522.c: 206:                 n = MFRC522_Read_Register(0x0A);
  1716   0007BC  0E0A               	movlw	10
  1717   0007BE  EC0C  F007         	call	_MFRC522_Read_Register
  1718   0007C2  6E25               	movwf	MFRC522_ToCard@n^0,c
  1719                           
  1720                           ;mfrc522.c: 207:                 lastBits = MFRC522_Read_Register(0x0C) & 0x07;
  1721   0007C4  0E0C               	movlw	12
  1722   0007C6  EC0C  F007         	call	_MFRC522_Read_Register
  1723   0007CA  0B07               	andlw	7
  1724   0007CC  6E20               	movwf	MFRC522_ToCard@lastBits^0,c
  1725   0007CE                     
  1726                           ;mfrc522.c: 208:                 if (lastBits){
  1727   0007CE  5020               	movf	MFRC522_ToCard@lastBits^0,w,c
  1728   0007D0  B4D8               	btfsc	status,2,c
  1729   0007D2  EFED  F003         	goto	u561
  1730   0007D6  EFEF  F003         	goto	u560
  1731   0007DA                     u561:
  1732   0007DA  EFFB  F003         	goto	l1591
  1733   0007DE                     u560:
  1734   0007DE                     
  1735                           ;mfrc522.c: 209:                     *backLen = (n-1)*8 + lastBits;
  1736   0007DE  5025               	movf	MFRC522_ToCard@n^0,w,c
  1737   0007E0  0D08               	mullw	8
  1738   0007E2  50F3               	movf	243,w,c
  1739   0007E4  2420               	addwf	MFRC522_ToCard@lastBits^0,w,c
  1740   0007E6  0FF8               	addlw	248
  1741   0007E8  C01A  FFD9         	movff	MFRC522_ToCard@backLen,fsr2l
  1742   0007EC  C01B  FFDA         	movff	MFRC522_ToCard@backLen+1,fsr2h
  1743   0007F0  6EDF               	movwf	indf2,c
  1744                           
  1745                           ;mfrc522.c: 210:                 }
  1746   0007F2  EF03  F004         	goto	l1593
  1747   0007F6                     l1591:
  1748                           
  1749                           ;mfrc522.c: 212:                     *backLen = n*8;
  1750   0007F6  5025               	movf	MFRC522_ToCard@n^0,w,c
  1751   0007F8  0D08               	mullw	8
  1752   0007FA  C01A  FFD9         	movff	MFRC522_ToCard@backLen,fsr2l
  1753   0007FE  C01B  FFDA         	movff	MFRC522_ToCard@backLen+1,fsr2h
  1754   000802  CFF3 FFDF          	movff	prodl,indf2
  1755   000806                     l1593:
  1756                           
  1757                           ;mfrc522.c: 214:                 if (n == 0){
  1758   000806  5025               	movf	MFRC522_ToCard@n^0,w,c
  1759   000808  A4D8               	btfss	status,2,c
  1760   00080A  EF09  F004         	goto	u571
  1761   00080E  EF0B  F004         	goto	u570
  1762   000812                     u571:
  1763   000812  EF0D  F004         	goto	l1597
  1764   000816                     u570:
  1765   000816                     
  1766                           ;mfrc522.c: 215:                     n = 1;
  1767   000816  0E01               	movlw	1
  1768   000818  6E25               	movwf	MFRC522_ToCard@n^0,c
  1769   00081A                     l1597:
  1770                           
  1771                           ;mfrc522.c: 217:                 if (n > 16){
  1772   00081A  0E10               	movlw	16
  1773   00081C  6425               	cpfsgt	MFRC522_ToCard@n^0,c
  1774   00081E  EF13  F004         	goto	u581
  1775   000822  EF15  F004         	goto	u580
  1776   000826                     u581:
  1777   000826  EF17  F004         	goto	l165
  1778   00082A                     u580:
  1779   00082A                     
  1780                           ;mfrc522.c: 218:                     n = 16;
  1781   00082A  0E10               	movlw	16
  1782   00082C  6E25               	movwf	MFRC522_ToCard@n^0,c
  1783   00082E                     l165:
  1784                           
  1785                           ;mfrc522.c: 220:                 for (i=0; i<n; i++){
  1786   00082E  0E00               	movlw	0
  1787   000830  6E24               	movwf	(MFRC522_ToCard@i+1)^0,c
  1788   000832  0E00               	movlw	0
  1789   000834  6E23               	movwf	MFRC522_ToCard@i^0,c
  1790   000836  EF2B  F004         	goto	l1605
  1791   00083A                     l1601:
  1792                           
  1793                           ;mfrc522.c: 221:                     backData[i] = MFRC522_Read_Register(0x09);
  1794   00083A  0E09               	movlw	9
  1795   00083C  EC0C  F007         	call	_MFRC522_Read_Register
  1796   000840  6E1C               	movwf	??_MFRC522_ToCard^0,c
  1797   000842  5023               	movf	MFRC522_ToCard@i^0,w,c
  1798   000844  2418               	addwf	MFRC522_ToCard@backData^0,w,c
  1799   000846  6ED9               	movwf	fsr2l,c
  1800   000848  5024               	movf	(MFRC522_ToCard@i+1)^0,w,c
  1801   00084A  2019               	addwfc	(MFRC522_ToCard@backData+1)^0,w,c
  1802   00084C  6EDA               	movwf	fsr2h,c
  1803   00084E  C01C  FFDF         	movff	??_MFRC522_ToCard,indf2
  1804   000852                     
  1805                           ;mfrc522.c: 222:                 }
  1806   000852  4A23               	infsnz	MFRC522_ToCard@i^0,f,c
  1807   000854  2A24               	incf	(MFRC522_ToCard@i+1)^0,f,c
  1808   000856                     l1605:
  1809   000856  5025               	movf	MFRC522_ToCard@n^0,w,c
  1810   000858  6E1C               	movwf	??_MFRC522_ToCard^0,c
  1811   00085A  6A1D               	clrf	(??_MFRC522_ToCard+1)^0,c
  1812   00085C  501C               	movf	??_MFRC522_ToCard^0,w,c
  1813   00085E  5C23               	subwf	MFRC522_ToCard@i^0,w,c
  1814   000860  501D               	movf	(??_MFRC522_ToCard+1)^0,w,c
  1815   000862  5824               	subwfb	(MFRC522_ToCard@i+1)^0,w,c
  1816   000864  A0D8               	btfss	status,0,c
  1817   000866  EF37  F004         	goto	u591
  1818   00086A  EF39  F004         	goto	u590
  1819   00086E                     u591:
  1820   00086E  EF1D  F004         	goto	l1601
  1821   000872                     u590:
  1822   000872  EF3D  F004         	goto	l158
  1823   000876                     l1607:
  1824                           
  1825                           ;mfrc522.c: 226:            status = 0x02;
  1826   000876  0E02               	movlw	2
  1827   000878  6E1F               	movwf	MFRC522_ToCard@status^0,c
  1828   00087A                     l158:
  1829                           
  1830                           ;mfrc522.c: 229:     return status;
  1831   00087A  501F               	movf	MFRC522_ToCard@status^0,w,c
  1832   00087C  0012               	return		;funcret
  1833   00087E                     __end_of_MFRC522_ToCard:
  1834                           	callstack 0
  1835                           
  1836 ;; *************** function _MFRC522_Modify_Register_Bit *****************
  1837 ;; Defined at:
  1838 ;;		line 124 in file "mfrc522.c"
  1839 ;; Parameters:    Size  Location     Type
  1840 ;;  addr            1    wreg     unsigned char 
  1841 ;;  bit_pos         1   14[COMRAM] unsigned char 
  1842 ;;  val             1   15[COMRAM] unsigned char 
  1843 ;; Auto vars:     Size  Location     Type
  1844 ;;  addr            1   18[COMRAM] unsigned char 
  1845 ;;  data            1   19[COMRAM] unsigned char 
  1846 ;; Return value:  Size  Location     Type
  1847 ;;                  1    wreg      void 
  1848 ;; Registers used:
  1849 ;;		wreg, fsr1l, fsr1h, fsr2l, fsr2h, status,2, status,0, cstack
  1850 ;; Tracked objects:
  1851 ;;		On entry : 0/0
  1852 ;;		On exit  : 0/0
  1853 ;;		Unchanged: 0/0
  1854 ;; Data sizes:     COMRAM   BANK0   BANK1   BANK2   BANK3   BANK4   BANK5
  1855 ;;      Params:         2       0       0       0       0       0       0
  1856 ;;      Locals:         2       0       0       0       0       0       0
  1857 ;;      Temps:          2       0       0       0       0       0       0
  1858 ;;      Totals:         6       0       0       0       0       0       0
  1859 ;;Total ram usage:        6 bytes
  1860 ;; Hardware stack levels used: 1
  1861 ;; Hardware stack levels required when called: 4
  1862 ;; This function calls:
  1863 ;;		_MFRC522_Read_Register
  1864 ;;		_MFRC522_Write_Register
  1865 ;; This function is called by:
  1866 ;;		_MFRC522_Antenna_On
  1867 ;;		_MFRC522_ToCard
  1868 ;;		_MFRC522_Antenna_Off
  1869 ;; This function uses a non-reentrant model
  1870 ;;
  1871                           
  1872                           	psect	text15
  1873   000ADC                     __ptext15:
  1874                           	callstack 0
  1875   000ADC                     _MFRC522_Modify_Register_Bit:
  1876                           	callstack 24
  1877                           
  1878                           ;incstack = 0
  1879                           ;MFRC522_Modify_Register_Bit@addr stored from wreg
  1880   000ADC  6E13               	movwf	MFRC522_Modify_Register_Bit@addr^0,c
  1881   000ADE                     
  1882                           ;mfrc522.c: 126:     data=MFRC522_Read_Register(addr);
  1883   000ADE  5013               	movf	MFRC522_Modify_Register_Bit@addr^0,w,c
  1884   000AE0  EC0C  F007         	call	_MFRC522_Read_Register
  1885   000AE4  6E14               	movwf	MFRC522_Modify_Register_Bit@data^0,c
  1886   000AE6                     
  1887                           ;mfrc522.c: 127:     if(val == 1){
  1888   000AE6  0410               	decf	MFRC522_Modify_Register_Bit@val^0,w,c
  1889   000AE8  A4D8               	btfss	status,2,c
  1890   000AEA  EF79  F005         	goto	u431
  1891   000AEE  EF7B  F005         	goto	u430
  1892   000AF2                     u431:
  1893   000AF2  EF8B  F005         	goto	l1527
  1894   000AF6                     u430:
  1895   000AF6                     
  1896                           ;mfrc522.c: 128:         data|=(1<<bit_pos);
  1897   000AF6  C00F  F011         	movff	MFRC522_Modify_Register_Bit@bit_pos,??_MFRC522_Modify_Register_Bit
  1898   000AFA  0E01               	movlw	1
  1899   000AFC  6E12               	movwf	(??_MFRC522_Modify_Register_Bit+1)^0,c
  1900   000AFE  2A11               	incf	??_MFRC522_Modify_Register_Bit^0,f,c
  1901   000B00  EF84  F005         	goto	u444
  1902   000B04                     u445:
  1903   000B04  90D8               	bcf	status,0,c
  1904   000B06  3612               	rlcf	(??_MFRC522_Modify_Register_Bit+1)^0,f,c
  1905   000B08                     u444:
  1906   000B08  2E11               	decfsz	??_MFRC522_Modify_Register_Bit^0,f,c
  1907   000B0A  EF82  F005         	goto	u445
  1908   000B0E  5012               	movf	(??_MFRC522_Modify_Register_Bit+1)^0,w,c
  1909   000B10  1214               	iorwf	MFRC522_Modify_Register_Bit@data^0,f,c
  1910                           
  1911                           ;mfrc522.c: 129:     }else if(val == 0){
  1912   000B12  EFA2  F005         	goto	l1531
  1913   000B16                     l1527:
  1914   000B16  5010               	movf	MFRC522_Modify_Register_Bit@val^0,w,c
  1915   000B18  A4D8               	btfss	status,2,c
  1916   000B1A  EF91  F005         	goto	u451
  1917   000B1E  EF93  F005         	goto	u450
  1918   000B22                     u451:
  1919   000B22  EFA2  F005         	goto	l1531
  1920   000B26                     u450:
  1921   000B26                     
  1922                           ;mfrc522.c: 130:         data&=~(1<<bit_pos);
  1923   000B26  C00F  F011         	movff	MFRC522_Modify_Register_Bit@bit_pos,??_MFRC522_Modify_Register_Bit
  1924   000B2A  0E01               	movlw	1
  1925   000B2C  6E12               	movwf	(??_MFRC522_Modify_Register_Bit+1)^0,c
  1926   000B2E  2A11               	incf	??_MFRC522_Modify_Register_Bit^0,f,c
  1927   000B30  EF9C  F005         	goto	u464
  1928   000B34                     u465:
  1929   000B34  90D8               	bcf	status,0,c
  1930   000B36  3612               	rlcf	(??_MFRC522_Modify_Register_Bit+1)^0,f,c
  1931   000B38                     u464:
  1932   000B38  2E11               	decfsz	??_MFRC522_Modify_Register_Bit^0,f,c
  1933   000B3A  EF9A  F005         	goto	u465
  1934   000B3E  5012               	movf	(??_MFRC522_Modify_Register_Bit+1)^0,w,c
  1935   000B40  0AFF               	xorlw	255
  1936   000B42  1614               	andwf	MFRC522_Modify_Register_Bit@data^0,f,c
  1937   000B44                     l1531:
  1938                           
  1939                           ;mfrc522.c: 132:     MFRC522_Write_Register(addr, data);
  1940   000B44  C014  F00B         	movff	MFRC522_Modify_Register_Bit@data,MFRC522_Write_Register@val
  1941   000B48  5013               	movf	MFRC522_Modify_Register_Bit@addr^0,w,c
  1942   000B4A  EC1E  F007         	call	_MFRC522_Write_Register
  1943   000B4E  0012               	return		;funcret
  1944   000B50                     __end_of_MFRC522_Modify_Register_Bit:
  1945                           	callstack 0
  1946                           
  1947 ;; *************** function _MFRC522_Write_Register *****************
  1948 ;; Defined at:
  1949 ;;		line 109 in file "mfrc522.c"
  1950 ;; Parameters:    Size  Location     Type
  1951 ;;  addr            1    wreg     unsigned char 
  1952 ;;  val             1   10[COMRAM] unsigned char 
  1953 ;; Auto vars:     Size  Location     Type
  1954 ;;  addr            1   11[COMRAM] unsigned char 
  1955 ;;  data            2   12[COMRAM] unsigned char [2]
  1956 ;; Return value:  Size  Location     Type
  1957 ;;                  1    wreg      void 
  1958 ;; Registers used:
  1959 ;;		wreg, fsr1l, fsr1h, fsr2l, fsr2h, status,2, status,0, cstack
  1960 ;; Tracked objects:
  1961 ;;		On entry : 0/0
  1962 ;;		On exit  : 0/0
  1963 ;;		Unchanged: 0/0
  1964 ;; Data sizes:     COMRAM   BANK0   BANK1   BANK2   BANK3   BANK4   BANK5
  1965 ;;      Params:         1       0       0       0       0       0       0
  1966 ;;      Locals:         3       0       0       0       0       0       0
  1967 ;;      Temps:          0       0       0       0       0       0       0
  1968 ;;      Totals:         4       0       0       0       0       0       0
  1969 ;;Total ram usage:        4 bytes
  1970 ;; Hardware stack levels used: 1
  1971 ;; Hardware stack levels required when called: 3
  1972 ;; This function calls:
  1973 ;;		_SPI_Transfer
  1974 ;; This function is called by:
  1975 ;;		_MFRC522_Modify_Register_Bit
  1976 ;;		_MFRC522_Reset
  1977 ;;		_MFRC522_ToCard
  1978 ;;		_MFRC522_Anticoll
  1979 ;;		_MFRC522_Request
  1980 ;;		_MFRC522_Init
  1981 ;; This function uses a non-reentrant model
  1982 ;;
  1983                           
  1984                           	psect	text16
  1985   000E3C                     __ptext16:
  1986                           	callstack 0
  1987   000E3C                     _MFRC522_Write_Register:
  1988                           	callstack 26
  1989                           
  1990                           ;incstack = 0
  1991                           ;MFRC522_Write_Register@addr stored from wreg
  1992   000E3C  6E0C               	movwf	MFRC522_Write_Register@addr^0,c
  1993   000E3E                     
  1994                           ;mfrc522.c: 110:     uint8_t data[2];;mfrc522.c: 111:     data[0]=(addr<<1)&0x7E;
  1995   000E3E  500C               	movf	MFRC522_Write_Register@addr^0,w,c
  1996   000E40  240C               	addwf	MFRC522_Write_Register@addr^0,w,c
  1997   000E42  0B7E               	andlw	126
  1998   000E44  6E0D               	movwf	MFRC522_Write_Register@data^0,c
  1999   000E46                     
  2000                           ;mfrc522.c: 112:     data[1]=val;
  2001   000E46  C00B  F00E         	movff	MFRC522_Write_Register@val,MFRC522_Write_Register@data+1
  2002   000E4A                     
  2003                           ;mfrc522.c: 113:     SPI_Transfer(data, 2);
  2004   000E4A  0E0D               	movlw	low MFRC522_Write_Register@data
  2005   000E4C  6E07               	movwf	SPI_Transfer@data^0,c
  2006   000E4E  0E00               	movlw	high MFRC522_Write_Register@data
  2007   000E50  6E08               	movwf	(SPI_Transfer@data+1)^0,c
  2008   000E52  0E02               	movlw	2
  2009   000E54  6E09               	movwf	SPI_Transfer@len^0,c
  2010   000E56  EC36  F006         	call	_SPI_Transfer	;wreg free
  2011   000E5A  0012               	return		;funcret
  2012   000E5C                     __end_of_MFRC522_Write_Register:
  2013                           	callstack 0
  2014                           
  2015 ;; *************** function _MFRC522_Read_Register *****************
  2016 ;; Defined at:
  2017 ;;		line 116 in file "mfrc522.c"
  2018 ;; Parameters:    Size  Location     Type
  2019 ;;  addr            1    wreg     unsigned char 
  2020 ;; Auto vars:     Size  Location     Type
  2021 ;;  addr            1   10[COMRAM] unsigned char 
  2022 ;;  data            2   11[COMRAM] unsigned char [2]
  2023 ;; Return value:  Size  Location     Type
  2024 ;;                  1    wreg      unsigned char 
  2025 ;; Registers used:
  2026 ;;		wreg, fsr1l, fsr1h, fsr2l, fsr2h, status,2, status,0, cstack
  2027 ;; Tracked objects:
  2028 ;;		On entry : 0/0
  2029 ;;		On exit  : 0/0
  2030 ;;		Unchanged: 0/0
  2031 ;; Data sizes:     COMRAM   BANK0   BANK1   BANK2   BANK3   BANK4   BANK5
  2032 ;;      Params:         0       0       0       0       0       0       0
  2033 ;;      Locals:         3       0       0       0       0       0       0
  2034 ;;      Temps:          0       0       0       0       0       0       0
  2035 ;;      Totals:         3       0       0       0       0       0       0
  2036 ;;Total ram usage:        3 bytes
  2037 ;; Hardware stack levels used: 1
  2038 ;; Hardware stack levels required when called: 3
  2039 ;; This function calls:
  2040 ;;		_SPI_Transfer
  2041 ;; This function is called by:
  2042 ;;		_MFRC522_Modify_Register_Bit
  2043 ;;		_MFRC522_Antenna_On
  2044 ;;		_MFRC522_ToCard
  2045 ;; This function uses a non-reentrant model
  2046 ;;
  2047                           
  2048                           	psect	text17
  2049   000E18                     __ptext17:
  2050                           	callstack 0
  2051   000E18                     _MFRC522_Read_Register:
  2052                           	callstack 25
  2053                           
  2054                           ;incstack = 0
  2055                           ;MFRC522_Read_Register@addr stored from wreg
  2056   000E18  6E0B               	movwf	MFRC522_Read_Register@addr^0,c
  2057   000E1A                     
  2058                           ;mfrc522.c: 117:     uint8_t data[2];;mfrc522.c: 118:     data[0]=((addr<<1)&0x7E) | 0x8
      +                          0;
  2059   000E1A  500B               	movf	MFRC522_Read_Register@addr^0,w,c
  2060   000E1C  240B               	addwf	MFRC522_Read_Register@addr^0,w,c
  2061   000E1E  0B7E               	andlw	126
  2062   000E20  0980               	iorlw	128
  2063   000E22  6E0C               	movwf	MFRC522_Read_Register@data^0,c
  2064   000E24                     
  2065                           ;mfrc522.c: 119:     data[1]=0;
  2066   000E24  0E00               	movlw	0
  2067   000E26  6E0D               	movwf	(MFRC522_Read_Register@data+1)^0,c
  2068   000E28                     
  2069                           ;mfrc522.c: 120:     SPI_Transfer(data, 2);
  2070   000E28  0E0C               	movlw	low MFRC522_Read_Register@data
  2071   000E2A  6E07               	movwf	SPI_Transfer@data^0,c
  2072   000E2C  0E00               	movlw	high MFRC522_Read_Register@data
  2073   000E2E  6E08               	movwf	(SPI_Transfer@data+1)^0,c
  2074   000E30  0E02               	movlw	2
  2075   000E32  6E09               	movwf	SPI_Transfer@len^0,c
  2076   000E34  EC36  F006         	call	_SPI_Transfer	;wreg free
  2077   000E38                     
  2078                           ;mfrc522.c: 121:     return data[1];
  2079   000E38  500D               	movf	(MFRC522_Read_Register@data+1)^0,w,c
  2080   000E3A  0012               	return		;funcret
  2081   000E3C                     __end_of_MFRC522_Read_Register:
  2082                           	callstack 0
  2083                           
  2084 ;; *************** function _SPI_Transfer *****************
  2085 ;; Defined at:
  2086 ;;		line 152 in file "spi.c"
  2087 ;; Parameters:    Size  Location     Type
  2088 ;;  data            2    6[COMRAM] PTR unsigned char 
  2089 ;;		 -> MFRC522_Read_Register@data(2), MFRC522_Write_Register@data(2), 
  2090 ;;  len             1    8[COMRAM] unsigned char 
  2091 ;; Auto vars:     Size  Location     Type
  2092 ;;  i               1    9[COMRAM] unsigned char 
  2093 ;; Return value:  Size  Location     Type
  2094 ;;                  1    wreg      void 
  2095 ;; Registers used:
  2096 ;;		wreg, fsr1l, fsr1h, fsr2l, fsr2h, status,2, status,0, cstack
  2097 ;; Tracked objects:
  2098 ;;		On entry : 0/0
  2099 ;;		On exit  : 0/0
  2100 ;;		Unchanged: 0/0
  2101 ;; Data sizes:     COMRAM   BANK0   BANK1   BANK2   BANK3   BANK4   BANK5
  2102 ;;      Params:         3       0       0       0       0       0       0
  2103 ;;      Locals:         1       0       0       0       0       0       0
  2104 ;;      Temps:          0       0       0       0       0       0       0
  2105 ;;      Totals:         4       0       0       0       0       0       0
  2106 ;;Total ram usage:        4 bytes
  2107 ;; Hardware stack levels used: 1
  2108 ;; Hardware stack levels required when called: 2
  2109 ;; This function calls:
  2110 ;;		_SPI_CS_Output_High
  2111 ;;		_SPI_CS_Output_Low
  2112 ;;		_SPI_Transfer_Byte_MSB_First
  2113 ;; This function is called by:
  2114 ;;		_MFRC522_Write_Register
  2115 ;;		_MFRC522_Read_Register
  2116 ;; This function uses a non-reentrant model
  2117 ;;
  2118                           
  2119                           	psect	text18
  2120   000C6C                     __ptext18:
  2121                           	callstack 0
  2122   000C6C                     _SPI_Transfer:
  2123                           	callstack 26
  2124   000C6C                     
  2125                           ;spi.c: 153:     SPI_CS_Output_Low();
  2126   000C6C  ECCD  F007         	call	_SPI_CS_Output_Low	;wreg free
  2127   000C70                     
  2128                           ;spi.c: 154:     for(uint8_t i=0; i<len; i++){
  2129   000C70  0E00               	movlw	0
  2130   000C72  6E0A               	movwf	SPI_Transfer@i^0,c
  2131   000C74  EF4D  F006         	goto	l1499
  2132   000C78                     l1495:
  2133                           
  2134                           ;spi.c: 156:         data[i]=SPI_Transfer_Byte_MSB_First(data[i]);
  2135   000C78  500A               	movf	SPI_Transfer@i^0,w,c
  2136   000C7A  2407               	addwf	SPI_Transfer@data^0,w,c
  2137   000C7C  6ED9               	movwf	fsr2l,c
  2138   000C7E  0E00               	movlw	0
  2139   000C80  2008               	addwfc	(SPI_Transfer@data+1)^0,w,c
  2140   000C82  6EDA               	movwf	fsr2h,c
  2141   000C84  500A               	movf	SPI_Transfer@i^0,w,c
  2142   000C86  2407               	addwf	SPI_Transfer@data^0,w,c
  2143   000C88  6EE1               	movwf	fsr1l,c
  2144   000C8A  0E00               	movlw	0
  2145   000C8C  2008               	addwfc	(SPI_Transfer@data+1)^0,w,c
  2146   000C8E  6EE2               	movwf	fsr1h,c
  2147   000C90  50E7               	movf	indf1,w,c
  2148   000C92  EC2B  F005         	call	_SPI_Transfer_Byte_MSB_First
  2149   000C96  6EDF               	movwf	indf2,c
  2150   000C98                     
  2151                           ;spi.c: 160:     }
  2152   000C98  2A0A               	incf	SPI_Transfer@i^0,f,c
  2153   000C9A                     l1499:
  2154   000C9A  5009               	movf	SPI_Transfer@len^0,w,c
  2155   000C9C  5C0A               	subwf	SPI_Transfer@i^0,w,c
  2156   000C9E  A0D8               	btfss	status,0,c
  2157   000CA0  EF54  F006         	goto	u421
  2158   000CA4  EF56  F006         	goto	u420
  2159   000CA8                     u421:
  2160   000CA8  EF3C  F006         	goto	l1495
  2161   000CAC                     u420:
  2162   000CAC                     
  2163                           ;spi.c: 161:     SPI_CS_Output_High();
  2164   000CAC  ECCF  F007         	call	_SPI_CS_Output_High	;wreg free
  2165   000CB0  0012               	return		;funcret
  2166   000CB2                     __end_of_SPI_Transfer:
  2167                           	callstack 0
  2168                           
  2169 ;; *************** function _SPI_Transfer_Byte_MSB_First *****************
  2170 ;; Defined at:
  2171 ;;		line 107 in file "spi.c"
  2172 ;; Parameters:    Size  Location     Type
  2173 ;;  val             1    wreg     unsigned char 
  2174 ;; Auto vars:     Size  Location     Type
  2175 ;;  val             1    2[COMRAM] unsigned char 
  2176 ;;  i               2    4[COMRAM] int 
  2177 ;;  data            1    3[COMRAM] unsigned char 
  2178 ;; Return value:  Size  Location     Type
  2179 ;;                  1    wreg      unsigned char 
  2180 ;; Registers used:
  2181 ;;		wreg, status,2, status,0, cstack
  2182 ;; Tracked objects:
  2183 ;;		On entry : 0/0
  2184 ;;		On exit  : 0/0
  2185 ;;		Unchanged: 0/0
  2186 ;; Data sizes:     COMRAM   BANK0   BANK1   BANK2   BANK3   BANK4   BANK5
  2187 ;;      Params:         0       0       0       0       0       0       0
  2188 ;;      Locals:         4       0       0       0       0       0       0
  2189 ;;      Temps:          2       0       0       0       0       0       0
  2190 ;;      Totals:         6       0       0       0       0       0       0
  2191 ;;Total ram usage:        6 bytes
  2192 ;; Hardware stack levels used: 1
  2193 ;; Hardware stack levels required when called: 1
  2194 ;; This function calls:
  2195 ;;		_SPI_MISO_State
  2196 ;;		_SPI_MOSI_Output_High
  2197 ;;		_SPI_MOSI_Output_Low
  2198 ;;		_SPI_SCK_Output_High
  2199 ;;		_SPI_SCK_Output_Low
  2200 ;;		_SPI_Timer_Wait_Half_Bit_Time
  2201 ;;		_SPI_Timer_Wait_One_Bit_Time
  2202 ;; This function is called by:
  2203 ;;		_SPI_Transfer
  2204 ;; This function uses a non-reentrant model
  2205 ;;
  2206                           
  2207                           	psect	text19
  2208   000A56                     __ptext19:
  2209                           	callstack 0
  2210   000A56                     _SPI_Transfer_Byte_MSB_First:
  2211                           	callstack 26
  2212                           
  2213                           ;incstack = 0
  2214                           ;SPI_Transfer_Byte_MSB_First@val stored from wreg
  2215   000A56  6E03               	movwf	SPI_Transfer_Byte_MSB_First@val^0,c
  2216   000A58                     
  2217                           ;spi.c: 108:     uint8_t data=0;
  2218   000A58  0E00               	movlw	0
  2219   000A5A  6E04               	movwf	SPI_Transfer_Byte_MSB_First@data^0,c
  2220   000A5C                     
  2221                           ;spi.c: 109:     SPI_Timer_Wait_One_Bit_Time();
  2222   000A5C  EC2E  F007         	call	_SPI_Timer_Wait_One_Bit_Time	;wreg free
  2223   000A60                     
  2224                           ;spi.c: 110:     SPI_Timer_Wait_Half_Bit_Time();
  2225   000A60  EC3E  F007         	call	_SPI_Timer_Wait_Half_Bit_Time	;wreg free
  2226   000A64                     
  2227                           ;spi.c: 111:     for(int i=7; i>=0; i--){
  2228   000A64  0E00               	movlw	0
  2229   000A66  6E06               	movwf	(SPI_Transfer_Byte_MSB_First@i+1)^0,c
  2230   000A68  0E07               	movlw	7
  2231   000A6A  6E05               	movwf	SPI_Transfer_Byte_MSB_First@i^0,c
  2232   000A6C                     l1023:
  2233                           
  2234                           ;spi.c: 112:         if( (val>>i) & 1){
  2235   000A6C  C005  F001         	movff	SPI_Transfer_Byte_MSB_First@i,??_SPI_Transfer_Byte_MSB_First
  2236   000A70  C003  F002         	movff	SPI_Transfer_Byte_MSB_First@val,??_SPI_Transfer_Byte_MSB_First+1
  2237   000A74  2A01               	incf	??_SPI_Transfer_Byte_MSB_First^0,f,c
  2238   000A76  EF3F  F005         	goto	u44
  2239   000A7A                     u45:
  2240   000A7A  90D8               	bcf	status,0,c
  2241   000A7C  3202               	rrcf	(??_SPI_Transfer_Byte_MSB_First+1)^0,f,c
  2242   000A7E                     u44:
  2243   000A7E  2E01               	decfsz	??_SPI_Transfer_Byte_MSB_First^0,f,c
  2244   000A80  EF3D  F005         	goto	u45
  2245   000A84  A002               	btfss	(??_SPI_Transfer_Byte_MSB_First+1)^0,0,c
  2246   000A86  EF47  F005         	goto	u51
  2247   000A8A  EF49  F005         	goto	u50
  2248   000A8E                     u51:
  2249   000A8E  EF4D  F005         	goto	l1027
  2250   000A92                     u50:
  2251   000A92                     
  2252                           ;spi.c: 113:             SPI_MOSI_Output_High();
  2253   000A92  ECCB  F007         	call	_SPI_MOSI_Output_High	;wreg free
  2254                           
  2255                           ;spi.c: 114:         }else{
  2256   000A96  EF4F  F005         	goto	l1029
  2257   000A9A                     l1027:
  2258                           
  2259                           ;spi.c: 115:             SPI_MOSI_Output_Low();
  2260   000A9A  ECC9  F007         	call	_SPI_MOSI_Output_Low	;wreg free
  2261   000A9E                     l1029:
  2262                           
  2263                           ;spi.c: 117:         SPI_Timer_Wait_Half_Bit_Time();
  2264   000A9E  EC3E  F007         	call	_SPI_Timer_Wait_Half_Bit_Time	;wreg free
  2265   000AA2                     
  2266                           ;spi.c: 118:         SPI_SCK_Output_High();
  2267   000AA2  ECC7  F007         	call	_SPI_SCK_Output_High	;wreg free
  2268   000AA6                     
  2269                           ;spi.c: 119:         data<<=1;
  2270   000AA6  90D8               	bcf	status,0,c
  2271   000AA8  3604               	rlcf	SPI_Transfer_Byte_MSB_First@data^0,f,c
  2272   000AAA                     
  2273                           ;spi.c: 120:         data|=SPI_MISO_State();
  2274   000AAA  EC7A  F007         	call	_SPI_MISO_State	;wreg free
  2275   000AAE  1204               	iorwf	SPI_Transfer_Byte_MSB_First@data^0,f,c
  2276   000AB0                     
  2277                           ;spi.c: 121:         SPI_Timer_Wait_Half_Bit_Time();
  2278   000AB0  EC3E  F007         	call	_SPI_Timer_Wait_Half_Bit_Time	;wreg free
  2279   000AB4                     
  2280                           ;spi.c: 122:         SPI_SCK_Output_Low();
  2281   000AB4  ECC5  F007         	call	_SPI_SCK_Output_Low	;wreg free
  2282                           
  2283                           ;spi.c: 123:     }
  2284   000AB8  0605               	decf	SPI_Transfer_Byte_MSB_First@i^0,f,c
  2285   000ABA  A0D8               	btfss	status,0,c
  2286   000ABC  0606               	decf	(SPI_Transfer_Byte_MSB_First@i+1)^0,f,c
  2287   000ABE  BE06               	btfsc	(SPI_Transfer_Byte_MSB_First@i+1)^0,7,c
  2288   000AC0  EF66  F005         	goto	u60
  2289   000AC4  EF64  F005         	goto	u61
  2290   000AC8                     u61:
  2291   000AC8  EF36  F005         	goto	l1023
  2292   000ACC                     u60:
  2293   000ACC                     
  2294                           ;spi.c: 124:     SPI_Timer_Wait_One_Bit_Time();
  2295   000ACC  EC2E  F007         	call	_SPI_Timer_Wait_One_Bit_Time	;wreg free
  2296   000AD0                     
  2297                           ;spi.c: 125:     SPI_MOSI_Output_Low();
  2298   000AD0  ECC9  F007         	call	_SPI_MOSI_Output_Low	;wreg free
  2299   000AD4                     
  2300                           ;spi.c: 126:     SPI_Timer_Wait_Half_Bit_Time();
  2301   000AD4  EC3E  F007         	call	_SPI_Timer_Wait_Half_Bit_Time	;wreg free
  2302   000AD8                     
  2303                           ;spi.c: 127:     return data;
  2304   000AD8  5004               	movf	SPI_Transfer_Byte_MSB_First@data^0,w,c
  2305   000ADA  0012               	return		;funcret
  2306   000ADC                     __end_of_SPI_Transfer_Byte_MSB_First:
  2307                           	callstack 0
  2308                           
  2309 ;; *************** function _SPI_Timer_Wait_One_Bit_Time *****************
  2310 ;; Defined at:
  2311 ;;		line 97 in file "spi.c"
  2312 ;; Parameters:    Size  Location     Type
  2313 ;;		None
  2314 ;; Auto vars:     Size  Location     Type
  2315 ;;		None
  2316 ;; Return value:  Size  Location     Type
  2317 ;;                  1    wreg      void 
  2318 ;; Registers used:
  2319 ;;		wreg, status,2, status,0
  2320 ;; Tracked objects:
  2321 ;;		On entry : 0/0
  2322 ;;		On exit  : 0/0
  2323 ;;		Unchanged: 0/0
  2324 ;; Data sizes:     COMRAM   BANK0   BANK1   BANK2   BANK3   BANK4   BANK5
  2325 ;;      Params:         0       0       0       0       0       0       0
  2326 ;;      Locals:         0       0       0       0       0       0       0
  2327 ;;      Temps:          0       0       0       0       0       0       0
  2328 ;;      Totals:         0       0       0       0       0       0       0
  2329 ;;Total ram usage:        0 bytes
  2330 ;; Hardware stack levels used: 1
  2331 ;; This function calls:
  2332 ;;		Nothing
  2333 ;; This function is called by:
  2334 ;;		_SPI_Transfer_Byte_MSB_First
  2335 ;;		_SPI_Transfer_Byte_LSB_First
  2336 ;; This function uses a non-reentrant model
  2337 ;;
  2338                           
  2339                           	psect	text20
  2340   000E5C                     __ptext20:
  2341                           	callstack 0
  2342   000E5C                     _SPI_Timer_Wait_One_Bit_Time:
  2343                           	callstack 26
  2344   000E5C                     
  2345                           ;spi.c: 98:     TMR0 = 0;
  2346   000E5C  0E00               	movlw	0
  2347   000E5E  6ED7               	movwf	215,c	;volatile
  2348   000E60  0E00               	movlw	0
  2349   000E62  6ED6               	movwf	214,c	;volatile
  2350   000E64                     l1001:
  2351   000E64  50D7               	movf	215,w,c	;volatile
  2352   000E66  E109               	bnz	u20
  2353   000E68  0E50               	movlw	80
  2354   000E6A  5CD6               	subwf	214,w,c	;volatile
  2355   000E6C  A0D8               	btfss	status,0,c
  2356   000E6E  EF3B  F007         	goto	u21
  2357   000E72  EF3D  F007         	goto	u20
  2358   000E76                     u21:
  2359   000E76  EF32  F007         	goto	l1001
  2360   000E7A                     u20:
  2361   000E7A  0012               	return		;funcret
  2362   000E7C                     __end_of_SPI_Timer_Wait_One_Bit_Time:
  2363                           	callstack 0
  2364                           
  2365 ;; *************** function _SPI_Timer_Wait_Half_Bit_Time *****************
  2366 ;; Defined at:
  2367 ;;		line 102 in file "spi.c"
  2368 ;; Parameters:    Size  Location     Type
  2369 ;;		None
  2370 ;; Auto vars:     Size  Location     Type
  2371 ;;		None
  2372 ;; Return value:  Size  Location     Type
  2373 ;;                  1    wreg      void 
  2374 ;; Registers used:
  2375 ;;		wreg, status,2, status,0
  2376 ;; Tracked objects:
  2377 ;;		On entry : 0/0
  2378 ;;		On exit  : 0/0
  2379 ;;		Unchanged: 0/0
  2380 ;; Data sizes:     COMRAM   BANK0   BANK1   BANK2   BANK3   BANK4   BANK5
  2381 ;;      Params:         0       0       0       0       0       0       0
  2382 ;;      Locals:         0       0       0       0       0       0       0
  2383 ;;      Temps:          0       0       0       0       0       0       0
  2384 ;;      Totals:         0       0       0       0       0       0       0
  2385 ;;Total ram usage:        0 bytes
  2386 ;; Hardware stack levels used: 1
  2387 ;; This function calls:
  2388 ;;		Nothing
  2389 ;; This function is called by:
  2390 ;;		_SPI_Transfer_Byte_MSB_First
  2391 ;;		_SPI_Transfer_Byte_LSB_First
  2392 ;; This function uses a non-reentrant model
  2393 ;;
  2394                           
  2395                           	psect	text21
  2396   000E7C                     __ptext21:
  2397                           	callstack 0
  2398   000E7C                     _SPI_Timer_Wait_Half_Bit_Time:
  2399                           	callstack 26
  2400   000E7C                     
  2401                           ;spi.c: 103:     TMR0 = 0;
  2402   000E7C  0E00               	movlw	0
  2403   000E7E  6ED7               	movwf	215,c	;volatile
  2404   000E80  0E00               	movlw	0
  2405   000E82  6ED6               	movwf	214,c	;volatile
  2406   000E84                     l1005:
  2407   000E84  50D7               	movf	215,w,c	;volatile
  2408   000E86  E109               	bnz	u30
  2409   000E88  0E28               	movlw	40
  2410   000E8A  5CD6               	subwf	214,w,c	;volatile
  2411   000E8C  A0D8               	btfss	status,0,c
  2412   000E8E  EF4B  F007         	goto	u31
  2413   000E92  EF4D  F007         	goto	u30
  2414   000E96                     u31:
  2415   000E96  EF42  F007         	goto	l1005
  2416   000E9A                     u30:
  2417   000E9A  0012               	return		;funcret
  2418   000E9C                     __end_of_SPI_Timer_Wait_Half_Bit_Time:
  2419                           	callstack 0
  2420                           
  2421 ;; *************** function _SPI_SCK_Output_Low *****************
  2422 ;; Defined at:
  2423 ;;		line 36 in file "spi.c"
  2424 ;; Parameters:    Size  Location     Type
  2425 ;;		None
  2426 ;; Auto vars:     Size  Location     Type
  2427 ;;		None
  2428 ;; Return value:  Size  Location     Type
  2429 ;;                  1    wreg      void 
  2430 ;; Registers used:
  2431 ;;		status,2, status,0
  2432 ;; Tracked objects:
  2433 ;;		On entry : 0/0
  2434 ;;		On exit  : 0/0
  2435 ;;		Unchanged: 0/0
  2436 ;; Data sizes:     COMRAM   BANK0   BANK1   BANK2   BANK3   BANK4   BANK5
  2437 ;;      Params:         0       0       0       0       0       0       0
  2438 ;;      Locals:         0       0       0       0       0       0       0
  2439 ;;      Temps:          0       0       0       0       0       0       0
  2440 ;;      Totals:         0       0       0       0       0       0       0
  2441 ;;Total ram usage:        0 bytes
  2442 ;; Hardware stack levels used: 1
  2443 ;; This function calls:
  2444 ;;		Nothing
  2445 ;; This function is called by:
  2446 ;;		_SPI_GPIO_Init
  2447 ;;		_SPI_Transfer_Byte_MSB_First
  2448 ;;		_SPI_Transfer_Byte_LSB_First
  2449 ;; This function uses a non-reentrant model
  2450 ;;
  2451                           
  2452                           	psect	text22
  2453   000F8A                     __ptext22:
  2454                           	callstack 0
  2455   000F8A                     _SPI_SCK_Output_Low:
  2456                           	callstack 27
  2457   000F8A                     
  2458                           ;spi.c: 37:     LATC&=~(1<<0x03U);
  2459   000F8A  968B               	bcf	139,3,c	;volatile
  2460   000F8C  0012               	return		;funcret
  2461   000F8E                     __end_of_SPI_SCK_Output_Low:
  2462                           	callstack 0
  2463                           
  2464 ;; *************** function _SPI_SCK_Output_High *****************
  2465 ;; Defined at:
  2466 ;;		line 40 in file "spi.c"
  2467 ;; Parameters:    Size  Location     Type
  2468 ;;		None
  2469 ;; Auto vars:     Size  Location     Type
  2470 ;;		None
  2471 ;; Return value:  Size  Location     Type
  2472 ;;                  1    wreg      void 
  2473 ;; Registers used:
  2474 ;;		status,2, status,0
  2475 ;; Tracked objects:
  2476 ;;		On entry : 0/0
  2477 ;;		On exit  : 0/0
  2478 ;;		Unchanged: 0/0
  2479 ;; Data sizes:     COMRAM   BANK0   BANK1   BANK2   BANK3   BANK4   BANK5
  2480 ;;      Params:         0       0       0       0       0       0       0
  2481 ;;      Locals:         0       0       0       0       0       0       0
  2482 ;;      Temps:          0       0       0       0       0       0       0
  2483 ;;      Totals:         0       0       0       0       0       0       0
  2484 ;;Total ram usage:        0 bytes
  2485 ;; Hardware stack levels used: 1
  2486 ;; This function calls:
  2487 ;;		Nothing
  2488 ;; This function is called by:
  2489 ;;		_SPI_Transfer_Byte_MSB_First
  2490 ;;		_SPI_Transfer_Byte_LSB_First
  2491 ;; This function uses a non-reentrant model
  2492 ;;
  2493                           
  2494                           	psect	text23
  2495   000F8E                     __ptext23:
  2496                           	callstack 0
  2497   000F8E                     _SPI_SCK_Output_High:
  2498                           	callstack 26
  2499   000F8E                     
  2500                           ;spi.c: 41:     LATC|=(1<<0x03U);
  2501   000F8E  868B               	bsf	139,3,c	;volatile
  2502   000F90  0012               	return		;funcret
  2503   000F92                     __end_of_SPI_SCK_Output_High:
  2504                           	callstack 0
  2505                           
  2506 ;; *************** function _SPI_MOSI_Output_Low *****************
  2507 ;; Defined at:
  2508 ;;		line 62 in file "spi.c"
  2509 ;; Parameters:    Size  Location     Type
  2510 ;;		None
  2511 ;; Auto vars:     Size  Location     Type
  2512 ;;		None
  2513 ;; Return value:  Size  Location     Type
  2514 ;;                  1    wreg      void 
  2515 ;; Registers used:
  2516 ;;		status,2, status,0
  2517 ;; Tracked objects:
  2518 ;;		On entry : 0/0
  2519 ;;		On exit  : 0/0
  2520 ;;		Unchanged: 0/0
  2521 ;; Data sizes:     COMRAM   BANK0   BANK1   BANK2   BANK3   BANK4   BANK5
  2522 ;;      Params:         0       0       0       0       0       0       0
  2523 ;;      Locals:         0       0       0       0       0       0       0
  2524 ;;      Temps:          0       0       0       0       0       0       0
  2525 ;;      Totals:         0       0       0       0       0       0       0
  2526 ;;Total ram usage:        0 bytes
  2527 ;; Hardware stack levels used: 1
  2528 ;; This function calls:
  2529 ;;		Nothing
  2530 ;; This function is called by:
  2531 ;;		_SPI_GPIO_Init
  2532 ;;		_SPI_Transfer_Byte_MSB_First
  2533 ;;		_SPI_Transfer_Byte_LSB_First
  2534 ;; This function uses a non-reentrant model
  2535 ;;
  2536                           
  2537                           	psect	text24
  2538   000F92                     __ptext24:
  2539                           	callstack 0
  2540   000F92                     _SPI_MOSI_Output_Low:
  2541                           	callstack 27
  2542   000F92                     
  2543                           ;spi.c: 63:     LATC&=~(1<<0x05U);
  2544   000F92  9A8B               	bcf	139,5,c	;volatile
  2545   000F94  0012               	return		;funcret
  2546   000F96                     __end_of_SPI_MOSI_Output_Low:
  2547                           	callstack 0
  2548                           
  2549 ;; *************** function _SPI_MOSI_Output_High *****************
  2550 ;; Defined at:
  2551 ;;		line 66 in file "spi.c"
  2552 ;; Parameters:    Size  Location     Type
  2553 ;;		None
  2554 ;; Auto vars:     Size  Location     Type
  2555 ;;		None
  2556 ;; Return value:  Size  Location     Type
  2557 ;;                  1    wreg      void 
  2558 ;; Registers used:
  2559 ;;		status,2, status,0
  2560 ;; Tracked objects:
  2561 ;;		On entry : 0/0
  2562 ;;		On exit  : 0/0
  2563 ;;		Unchanged: 0/0
  2564 ;; Data sizes:     COMRAM   BANK0   BANK1   BANK2   BANK3   BANK4   BANK5
  2565 ;;      Params:         0       0       0       0       0       0       0
  2566 ;;      Locals:         0       0       0       0       0       0       0
  2567 ;;      Temps:          0       0       0       0       0       0       0
  2568 ;;      Totals:         0       0       0       0       0       0       0
  2569 ;;Total ram usage:        0 bytes
  2570 ;; Hardware stack levels used: 1
  2571 ;; This function calls:
  2572 ;;		Nothing
  2573 ;; This function is called by:
  2574 ;;		_SPI_Transfer_Byte_MSB_First
  2575 ;;		_SPI_Transfer_Byte_LSB_First
  2576 ;; This function uses a non-reentrant model
  2577 ;;
  2578                           
  2579                           	psect	text25
  2580   000F96                     __ptext25:
  2581                           	callstack 0
  2582   000F96                     _SPI_MOSI_Output_High:
  2583                           	callstack 26
  2584   000F96                     
  2585                           ;spi.c: 67:     LATC|=(1<<0x05U);
  2586   000F96  8A8B               	bsf	139,5,c	;volatile
  2587   000F98  0012               	return		;funcret
  2588   000F9A                     __end_of_SPI_MOSI_Output_High:
  2589                           	callstack 0
  2590                           
  2591 ;; *************** function _SPI_MISO_State *****************
  2592 ;; Defined at:
  2593 ;;		line 49 in file "spi.c"
  2594 ;; Parameters:    Size  Location     Type
  2595 ;;		None
  2596 ;; Auto vars:     Size  Location     Type
  2597 ;;		None
  2598 ;; Return value:  Size  Location     Type
  2599 ;;                  1    wreg      unsigned char 
  2600 ;; Registers used:
  2601 ;;		wreg
  2602 ;; Tracked objects:
  2603 ;;		On entry : 0/0
  2604 ;;		On exit  : 0/0
  2605 ;;		Unchanged: 0/0
  2606 ;; Data sizes:     COMRAM   BANK0   BANK1   BANK2   BANK3   BANK4   BANK5
  2607 ;;      Params:         0       0       0       0       0       0       0
  2608 ;;      Locals:         0       0       0       0       0       0       0
  2609 ;;      Temps:          0       0       0       0       0       0       0
  2610 ;;      Totals:         0       0       0       0       0       0       0
  2611 ;;Total ram usage:        0 bytes
  2612 ;; Hardware stack levels used: 1
  2613 ;; This function calls:
  2614 ;;		Nothing
  2615 ;; This function is called by:
  2616 ;;		_SPI_Transfer_Byte_MSB_First
  2617 ;;		_SPI_Transfer_Byte_LSB_First
  2618 ;; This function uses a non-reentrant model
  2619 ;;
  2620                           
  2621                           	psect	text26
  2622   000EF4                     __ptext26:
  2623                           	callstack 0
  2624   000EF4                     _SPI_MISO_State:
  2625                           	callstack 26
  2626   000EF4                     
  2627                           ;spi.c: 50:     if( PORTC & (1<<0x04U) ){
  2628   000EF4  A882               	btfss	130,4,c	;volatile
  2629   000EF6  EF7F  F007         	goto	u11
  2630   000EFA  EF81  F007         	goto	u10
  2631   000EFE                     u11:
  2632   000EFE  EF84  F007         	goto	l991
  2633   000F02                     u10:
  2634   000F02                     
  2635                           ;spi.c: 51:         return 1;
  2636   000F02  0E01               	movlw	1
  2637   000F04  EF85  F007         	goto	l56
  2638   000F08                     l991:
  2639                           
  2640                           ;spi.c: 53:         return 0;
  2641   000F08  0E00               	movlw	0
  2642   000F0A                     l56:
  2643   000F0A  0012               	return		;funcret
  2644   000F0C                     __end_of_SPI_MISO_State:
  2645                           	callstack 0
  2646                           
  2647 ;; *************** function _SPI_CS_Output_Low *****************
  2648 ;; Defined at:
  2649 ;;		line 75 in file "spi.c"
  2650 ;; Parameters:    Size  Location     Type
  2651 ;;		None
  2652 ;; Auto vars:     Size  Location     Type
  2653 ;;		None
  2654 ;; Return value:  Size  Location     Type
  2655 ;;                  1    wreg      void 
  2656 ;; Registers used:
  2657 ;;		status,2, status,0
  2658 ;; Tracked objects:
  2659 ;;		On entry : 0/0
  2660 ;;		On exit  : 0/0
  2661 ;;		Unchanged: 0/0
  2662 ;; Data sizes:     COMRAM   BANK0   BANK1   BANK2   BANK3   BANK4   BANK5
  2663 ;;      Params:         0       0       0       0       0       0       0
  2664 ;;      Locals:         0       0       0       0       0       0       0
  2665 ;;      Temps:          0       0       0       0       0       0       0
  2666 ;;      Totals:         0       0       0       0       0       0       0
  2667 ;;Total ram usage:        0 bytes
  2668 ;; Hardware stack levels used: 1
  2669 ;; This function calls:
  2670 ;;		Nothing
  2671 ;; This function is called by:
  2672 ;;		_SPI_Transfer
  2673 ;; This function uses a non-reentrant model
  2674 ;;
  2675                           
  2676                           	psect	text27
  2677   000F9A                     __ptext27:
  2678                           	callstack 0
  2679   000F9A                     _SPI_CS_Output_Low:
  2680                           	callstack 27
  2681   000F9A                     
  2682                           ;spi.c: 76:     LATB&=~(1<<0x02U);
  2683   000F9A  948A               	bcf	138,2,c	;volatile
  2684   000F9C  0012               	return		;funcret
  2685   000F9E                     __end_of_SPI_CS_Output_Low:
  2686                           	callstack 0
  2687                           
  2688 ;; *************** function _SPI_CS_Output_High *****************
  2689 ;; Defined at:
  2690 ;;		line 79 in file "spi.c"
  2691 ;; Parameters:    Size  Location     Type
  2692 ;;		None
  2693 ;; Auto vars:     Size  Location     Type
  2694 ;;		None
  2695 ;; Return value:  Size  Location     Type
  2696 ;;                  1    wreg      void 
  2697 ;; Registers used:
  2698 ;;		status,2, status,0
  2699 ;; Tracked objects:
  2700 ;;		On entry : 0/0
  2701 ;;		On exit  : 0/0
  2702 ;;		Unchanged: 0/0
  2703 ;; Data sizes:     COMRAM   BANK0   BANK1   BANK2   BANK3   BANK4   BANK5
  2704 ;;      Params:         0       0       0       0       0       0       0
  2705 ;;      Locals:         0       0       0       0       0       0       0
  2706 ;;      Temps:          0       0       0       0       0       0       0
  2707 ;;      Totals:         0       0       0       0       0       0       0
  2708 ;;Total ram usage:        0 bytes
  2709 ;; Hardware stack levels used: 1
  2710 ;; This function calls:
  2711 ;;		Nothing
  2712 ;; This function is called by:
  2713 ;;		_SPI_GPIO_Init
  2714 ;;		_SPI_Transfer
  2715 ;; This function uses a non-reentrant model
  2716 ;;
  2717                           
  2718                           	psect	text28
  2719   000F9E                     __ptext28:
  2720                           	callstack 0
  2721   000F9E                     _SPI_CS_Output_High:
  2722                           	callstack 27
  2723   000F9E                     
  2724                           ;spi.c: 80:     LATB|=(1<<0x02U);
  2725   000F9E  848A               	bsf	138,2,c	;volatile
  2726   000FA0  0012               	return		;funcret
  2727   000FA2                     __end_of_SPI_CS_Output_High:
  2728                           	callstack 0
  2729                           
  2730 ;; *************** function _LCD_Write_String *****************
  2731 ;; Defined at:
  2732 ;;		line 186 in file "lcd.c"
  2733 ;; Parameters:    Size  Location     Type
  2734 ;;  str             2    3[COMRAM] PTR unsigned char 
  2735 ;;		 -> STR_2(11), STR_1(11), 
  2736 ;; Auto vars:     Size  Location     Type
  2737 ;;		None
  2738 ;; Return value:  Size  Location     Type
  2739 ;;                  1    wreg      void 
  2740 ;; Registers used:
  2741 ;;		wreg, status,2, status,0, tblptrl, tblptrh, tblptru, cstack
  2742 ;; Tracked objects:
  2743 ;;		On entry : 0/0
  2744 ;;		On exit  : 0/0
  2745 ;;		Unchanged: 0/0
  2746 ;; Data sizes:     COMRAM   BANK0   BANK1   BANK2   BANK3   BANK4   BANK5
  2747 ;;      Params:         2       0       0       0       0       0       0
  2748 ;;      Locals:         0       0       0       0       0       0       0
  2749 ;;      Temps:          1       0       0       0       0       0       0
  2750 ;;      Totals:         3       0       0       0       0       0       0
  2751 ;;Total ram usage:        3 bytes
  2752 ;; Hardware stack levels used: 1
  2753 ;; Hardware stack levels required when called: 3
  2754 ;; This function calls:
  2755 ;;		_LCD_Write_Data
  2756 ;; This function is called by:
  2757 ;;		_main
  2758 ;; This function uses a non-reentrant model
  2759 ;;
  2760                           
  2761                           	psect	text29
  2762   000CB2                     __ptext29:
  2763                           	callstack 0
  2764   000CB2                     _LCD_Write_String:
  2765                           	callstack 27
  2766   000CB2                     
  2767                           ;lcd.c: 187:     while (*str != '\0'){
  2768   000CB2  EF6C  F006         	goto	l1695
  2769   000CB6                     l1689:
  2770                           
  2771                           ;lcd.c: 188:         LCD_Write_Data(*str);
  2772   000CB6  C004  FFF6         	movff	LCD_Write_String@str,tblptrl
  2773   000CBA  C005  FFF7         	movff	LCD_Write_String@str+1,tblptrh
  2774   000CBE                     	if	0	;tblptru may be non-zero
  2775   000CBE                     	endif
  2776   000CBE                     	if	0	;tblptru may be non-zero
  2777   000CBE                     	endif
  2778   000CBE  0008               	tblrd		*
  2779   000CC0  50F5               	movf	tablat,w,c
  2780   000CC2  EC7B  F006         	call	_LCD_Write_Data
  2781   000CC6                     
  2782                           ;lcd.c: 189:         str++;
  2783   000CC6  4A04               	infsnz	LCD_Write_String@str^0,f,c
  2784   000CC8  2A05               	incf	(LCD_Write_String@str+1)^0,f,c
  2785   000CCA                     
  2786                           ;lcd.c: 190:         _delay((unsigned long)((20)*(8000000UL/4000.0)));
  2787   000CCA  0E34               	movlw	52
  2788   000CCC  6E06               	movwf	??_LCD_Write_String^0,c
  2789   000CCE  0EF2               	movlw	242
  2790   000CD0                     u737:
  2791   000CD0  2EE8               	decfsz	wreg,f,c
  2792   000CD2  D7FE               	bra	u737
  2793   000CD4  2E06               	decfsz	??_LCD_Write_String^0,f,c
  2794   000CD6  D7FC               	bra	u737
  2795   000CD8                     l1695:
  2796                           
  2797                           ;lcd.c: 187:     while (*str != '\0'){
  2798   000CD8  C004  FFF6         	movff	LCD_Write_String@str,tblptrl
  2799   000CDC  C005  FFF7         	movff	LCD_Write_String@str+1,tblptrh
  2800   000CE0                     	if	0	;tblptru may be non-zero
  2801   000CE0                     	endif
  2802   000CE0                     	if	0	;tblptru may be non-zero
  2803   000CE0                     	endif
  2804   000CE0  0008               	tblrd		*
  2805   000CE2  50F5               	movf	tablat,w,c
  2806   000CE4  0900               	iorlw	0
  2807   000CE6  A4D8               	btfss	status,2,c
  2808   000CE8  EF78  F006         	goto	u661
  2809   000CEC  EF7A  F006         	goto	u660
  2810   000CF0                     u661:
  2811   000CF0  EF5B  F006         	goto	l1689
  2812   000CF4                     u660:
  2813   000CF4  0012               	return		;funcret
  2814   000CF6                     __end_of_LCD_Write_String:
  2815                           	callstack 0
  2816                           
  2817 ;; *************** function _LCD_Write_Data *****************
  2818 ;; Defined at:
  2819 ;;		line 174 in file "lcd.c"
  2820 ;; Parameters:    Size  Location     Type
  2821 ;;  val             1    wreg     unsigned char 
  2822 ;; Auto vars:     Size  Location     Type
  2823 ;;  val             1    2[COMRAM] unsigned char 
  2824 ;; Return value:  Size  Location     Type
  2825 ;;                  1    wreg      void 
  2826 ;; Registers used:
  2827 ;;		wreg, status,2, status,0, cstack
  2828 ;; Tracked objects:
  2829 ;;		On entry : 0/0
  2830 ;;		On exit  : 0/0
  2831 ;;		Unchanged: 0/0
  2832 ;; Data sizes:     COMRAM   BANK0   BANK1   BANK2   BANK3   BANK4   BANK5
  2833 ;;      Params:         0       0       0       0       0       0       0
  2834 ;;      Locals:         1       0       0       0       0       0       0
  2835 ;;      Temps:          1       0       0       0       0       0       0
  2836 ;;      Totals:         2       0       0       0       0       0       0
  2837 ;;Total ram usage:        2 bytes
  2838 ;; Hardware stack levels used: 1
  2839 ;; Hardware stack levels required when called: 2
  2840 ;; This function calls:
  2841 ;;		_LCD_E_Output_High
  2842 ;;		_LCD_E_Output_Low
  2843 ;;		_LCD_RS_Output_High
  2844 ;;		_LCD_Write_Nibble_To_Data_Pins
  2845 ;; This function is called by:
  2846 ;;		_LCD_Write_String
  2847 ;; This function uses a non-reentrant model
  2848 ;;
  2849                           
  2850                           	psect	text30
  2851   000CF6                     __ptext30:
  2852                           	callstack 0
  2853   000CF6                     _LCD_Write_Data:
  2854                           	callstack 27
  2855                           
  2856                           ;incstack = 0
  2857                           ;LCD_Write_Data@val stored from wreg
  2858   000CF6  6E03               	movwf	LCD_Write_Data@val^0,c
  2859   000CF8                     
  2860                           ;lcd.c: 175:     LCD_RS_Output_High();
  2861   000CF8  ECD1  F007         	call	_LCD_RS_Output_High	;wreg free
  2862   000CFC                     
  2863                           ;lcd.c: 176:     LCD_Write_Nibble_To_Data_Pins(val>>4);
  2864   000CFC  3803               	swapf	LCD_Write_Data@val^0,w,c
  2865   000CFE  0B0F               	andlw	15
  2866   000D00  ECA8  F005         	call	_LCD_Write_Nibble_To_Data_Pins
  2867   000D04                     
  2868                           ;lcd.c: 177:     LCD_E_Output_High();
  2869   000D04  ECE7  F007         	call	_LCD_E_Output_High	;wreg free
  2870   000D08                     
  2871                           ;lcd.c: 178:     _delay((unsigned long)((20)*(8000000UL/4000.0)));
  2872   000D08  0E34               	movlw	52
  2873   000D0A  6E02               	movwf	??_LCD_Write_Data^0,c
  2874   000D0C  0EF2               	movlw	242
  2875   000D0E                     u747:
  2876   000D0E  2EE8               	decfsz	wreg,f,c
  2877   000D10  D7FE               	bra	u747
  2878   000D12  2E02               	decfsz	??_LCD_Write_Data^0,f,c
  2879   000D14  D7FC               	bra	u747
  2880                           
  2881                           ;lcd.c: 179:     LCD_E_Output_Low();
  2882   000D16  ECE5  F007         	call	_LCD_E_Output_Low	;wreg free
  2883   000D1A                     
  2884                           ;lcd.c: 180:     LCD_Write_Nibble_To_Data_Pins(val & 0x0F);
  2885   000D1A  5003               	movf	LCD_Write_Data@val^0,w,c
  2886   000D1C  0B0F               	andlw	15
  2887   000D1E  ECA8  F005         	call	_LCD_Write_Nibble_To_Data_Pins
  2888   000D22                     
  2889                           ;lcd.c: 181:     LCD_E_Output_High();
  2890   000D22  ECE7  F007         	call	_LCD_E_Output_High	;wreg free
  2891   000D26                     
  2892                           ;lcd.c: 182:     _delay((unsigned long)((20)*(8000000UL/4000.0)));
  2893   000D26  0E34               	movlw	52
  2894   000D28  6E02               	movwf	??_LCD_Write_Data^0,c
  2895   000D2A  0EF2               	movlw	242
  2896   000D2C                     u757:
  2897   000D2C  2EE8               	decfsz	wreg,f,c
  2898   000D2E  D7FE               	bra	u757
  2899   000D30  2E02               	decfsz	??_LCD_Write_Data^0,f,c
  2900   000D32  D7FC               	bra	u757
  2901                           
  2902                           ;lcd.c: 183:     LCD_E_Output_Low();
  2903   000D34  ECE5  F007         	call	_LCD_E_Output_Low	;wreg free
  2904   000D38  0012               	return		;funcret
  2905   000D3A                     __end_of_LCD_Write_Data:
  2906                           	callstack 0
  2907                           
  2908 ;; *************** function _LCD_RS_Output_High *****************
  2909 ;; Defined at:
  2910 ;;		line 57 in file "lcd.c"
  2911 ;; Parameters:    Size  Location     Type
  2912 ;;		None
  2913 ;; Auto vars:     Size  Location     Type
  2914 ;;		None
  2915 ;; Return value:  Size  Location     Type
  2916 ;;                  1    wreg      void 
  2917 ;; Registers used:
  2918 ;;		status,2, status,0
  2919 ;; Tracked objects:
  2920 ;;		On entry : 0/0
  2921 ;;		On exit  : 0/0
  2922 ;;		Unchanged: 0/0
  2923 ;; Data sizes:     COMRAM   BANK0   BANK1   BANK2   BANK3   BANK4   BANK5
  2924 ;;      Params:         0       0       0       0       0       0       0
  2925 ;;      Locals:         0       0       0       0       0       0       0
  2926 ;;      Temps:          0       0       0       0       0       0       0
  2927 ;;      Totals:         0       0       0       0       0       0       0
  2928 ;;Total ram usage:        0 bytes
  2929 ;; Hardware stack levels used: 1
  2930 ;; This function calls:
  2931 ;;		Nothing
  2932 ;; This function is called by:
  2933 ;;		_LCD_Write_Data
  2934 ;; This function uses a non-reentrant model
  2935 ;;
  2936                           
  2937                           	psect	text31
  2938   000FA2                     __ptext31:
  2939                           	callstack 0
  2940   000FA2                     _LCD_RS_Output_High:
  2941                           	callstack 28
  2942   000FA2                     
  2943                           ;lcd.c: 58:     LATC|=(1<<0x02U);
  2944   000FA2  848B               	bsf	139,2,c	;volatile
  2945   000FA4  0012               	return		;funcret
  2946   000FA6                     __end_of_LCD_RS_Output_High:
  2947                           	callstack 0
  2948                           
  2949 ;; *************** function _LCD_Init *****************
  2950 ;; Defined at:
  2951 ;;		line 226 in file "lcd.c"
  2952 ;; Parameters:    Size  Location     Type
  2953 ;;		None
  2954 ;; Auto vars:     Size  Location     Type
  2955 ;;		None
  2956 ;; Return value:  Size  Location     Type
  2957 ;;                  1    wreg      void 
  2958 ;; Registers used:
  2959 ;;		wreg, status,2, status,0, cstack
  2960 ;; Tracked objects:
  2961 ;;		On entry : 0/0
  2962 ;;		On exit  : 0/0
  2963 ;;		Unchanged: 0/0
  2964 ;; Data sizes:     COMRAM   BANK0   BANK1   BANK2   BANK3   BANK4   BANK5
  2965 ;;      Params:         0       0       0       0       0       0       0
  2966 ;;      Locals:         0       0       0       0       0       0       0
  2967 ;;      Temps:          2       0       0       0       0       0       0
  2968 ;;      Totals:         2       0       0       0       0       0       0
  2969 ;;Total ram usage:        2 bytes
  2970 ;; Hardware stack levels used: 1
  2971 ;; Hardware stack levels required when called: 4
  2972 ;; This function calls:
  2973 ;;		_LCD_Clear
  2974 ;;		_LCD_GPIO_Init
  2975 ;;		_LCD_Registers_Init
  2976 ;; This function is called by:
  2977 ;;		_main
  2978 ;; This function uses a non-reentrant model
  2979 ;;
  2980                           
  2981                           	psect	text32
  2982   000DF2                     __ptext32:
  2983                           	callstack 0
  2984   000DF2                     _LCD_Init:
  2985                           	callstack 26
  2986   000DF2                     
  2987                           ;lcd.c: 227:     _delay((unsigned long)((200)*(8000000UL/4000.0)));
  2988   000DF2  0E03               	movlw	3
  2989   000DF4  6E07               	movwf	(??_LCD_Init+1)^0,c
  2990   000DF6  0E08               	movlw	8
  2991   000DF8  6E06               	movwf	??_LCD_Init^0,c
  2992   000DFA  0E77               	movlw	119
  2993   000DFC                     u767:
  2994   000DFC  2EE8               	decfsz	wreg,f,c
  2995   000DFE  D7FE               	bra	u767
  2996   000E00  2E06               	decfsz	??_LCD_Init^0,f,c
  2997   000E02  D7FC               	bra	u767
  2998   000E04  2E07               	decfsz	(??_LCD_Init+1)^0,f,c
  2999   000E06  D7FA               	bra	u767
  3000   000E08  F000               	nop	
  3001   000E0A                     
  3002                           ;lcd.c: 228:     LCD_GPIO_Init();
  3003   000E0A  EC5D  F007         	call	_LCD_GPIO_Init	;wreg free
  3004                           
  3005                           ;lcd.c: 229:     LCD_Registers_Init();
  3006   000E0E  ECE2  F004         	call	_LCD_Registers_Init	;wreg free
  3007                           
  3008                           ;lcd.c: 230:     LCD_Clear();
  3009   000E12  EC6C  F007         	call	_LCD_Clear	;wreg free
  3010   000E16  0012               	return		;funcret
  3011   000E18                     __end_of_LCD_Init:
  3012                           	callstack 0
  3013                           
  3014 ;; *************** function _LCD_Registers_Init *****************
  3015 ;; Defined at:
  3016 ;;		line 210 in file "lcd.c"
  3017 ;; Parameters:    Size  Location     Type
  3018 ;;		None
  3019 ;; Auto vars:     Size  Location     Type
  3020 ;;		None
  3021 ;; Return value:  Size  Location     Type
  3022 ;;                  1    wreg      void 
  3023 ;; Registers used:
  3024 ;;		wreg, status,2, status,0, cstack
  3025 ;; Tracked objects:
  3026 ;;		On entry : 0/0
  3027 ;;		On exit  : 0/0
  3028 ;;		Unchanged: 0/0
  3029 ;; Data sizes:     COMRAM   BANK0   BANK1   BANK2   BANK3   BANK4   BANK5
  3030 ;;      Params:         0       0       0       0       0       0       0
  3031 ;;      Locals:         0       0       0       0       0       0       0
  3032 ;;      Temps:          2       0       0       0       0       0       0
  3033 ;;      Totals:         2       0       0       0       0       0       0
  3034 ;;Total ram usage:        2 bytes
  3035 ;; Hardware stack levels used: 1
  3036 ;; Hardware stack levels required when called: 3
  3037 ;; This function calls:
  3038 ;;		_LCD_Write_Cmd
  3039 ;; This function is called by:
  3040 ;;		_LCD_Init
  3041 ;; This function uses a non-reentrant model
  3042 ;;
  3043                           
  3044                           	psect	text33
  3045   0009C4                     __ptext33:
  3046                           	callstack 0
  3047   0009C4                     _LCD_Registers_Init:
  3048                           	callstack 26
  3049   0009C4                     
  3050                           ;lcd.c: 211:     _delay((unsigned long)((200)*(8000000UL/4000.0)));
  3051   0009C4  0E03               	movlw	3
  3052   0009C6  6E05               	movwf	(??_LCD_Registers_Init+1)^0,c
  3053   0009C8  0E08               	movlw	8
  3054   0009CA  6E04               	movwf	??_LCD_Registers_Init^0,c
  3055   0009CC  0E77               	movlw	119
  3056   0009CE                     u777:
  3057   0009CE  2EE8               	decfsz	wreg,f,c
  3058   0009D0  D7FE               	bra	u777
  3059   0009D2  2E04               	decfsz	??_LCD_Registers_Init^0,f,c
  3060   0009D4  D7FC               	bra	u777
  3061   0009D6  2E05               	decfsz	(??_LCD_Registers_Init+1)^0,f,c
  3062   0009D8  D7FA               	bra	u777
  3063   0009DA  F000               	nop	
  3064   0009DC                     
  3065                           ;lcd.c: 212:     LCD_Write_Cmd(0x03);
  3066   0009DC  0E03               	movlw	3
  3067   0009DE  EC9D  F006         	call	_LCD_Write_Cmd
  3068   0009E2                     
  3069                           ;lcd.c: 213:     _delay((unsigned long)((20)*(8000000UL/4000.0)));
  3070   0009E2  0E34               	movlw	52
  3071   0009E4  6E04               	movwf	??_LCD_Registers_Init^0,c
  3072   0009E6  0EF2               	movlw	242
  3073   0009E8                     u787:
  3074   0009E8  2EE8               	decfsz	wreg,f,c
  3075   0009EA  D7FE               	bra	u787
  3076   0009EC  2E04               	decfsz	??_LCD_Registers_Init^0,f,c
  3077   0009EE  D7FC               	bra	u787
  3078                           
  3079                           ;lcd.c: 214:     LCD_Write_Cmd(0x02);
  3080   0009F0  0E02               	movlw	2
  3081   0009F2  EC9D  F006         	call	_LCD_Write_Cmd
  3082   0009F6                     
  3083                           ;lcd.c: 215:     _delay((unsigned long)((20)*(8000000UL/4000.0)));
  3084   0009F6  0E34               	movlw	52
  3085   0009F8  6E04               	movwf	??_LCD_Registers_Init^0,c
  3086   0009FA  0EF2               	movlw	242
  3087   0009FC                     u797:
  3088   0009FC  2EE8               	decfsz	wreg,f,c
  3089   0009FE  D7FE               	bra	u797
  3090   000A00  2E04               	decfsz	??_LCD_Registers_Init^0,f,c
  3091   000A02  D7FC               	bra	u797
  3092   000A04                     
  3093                           ;lcd.c: 216:     LCD_Write_Cmd(0x28);
  3094   000A04  0E28               	movlw	40
  3095   000A06  EC9D  F006         	call	_LCD_Write_Cmd
  3096                           
  3097                           ;lcd.c: 217:     _delay((unsigned long)((20)*(8000000UL/4000.0)));
  3098   000A0A  0E34               	movlw	52
  3099   000A0C  6E04               	movwf	??_LCD_Registers_Init^0,c
  3100   000A0E  0EF2               	movlw	242
  3101   000A10                     u807:
  3102   000A10  2EE8               	decfsz	wreg,f,c
  3103   000A12  D7FE               	bra	u807
  3104   000A14  2E04               	decfsz	??_LCD_Registers_Init^0,f,c
  3105   000A16  D7FC               	bra	u807
  3106   000A18                     
  3107                           ;lcd.c: 218:     LCD_Write_Cmd(0x01);
  3108   000A18  0E01               	movlw	1
  3109   000A1A  EC9D  F006         	call	_LCD_Write_Cmd
  3110   000A1E                     
  3111                           ;lcd.c: 219:     _delay((unsigned long)((20)*(8000000UL/4000.0)));
  3112   000A1E  0E34               	movlw	52
  3113   000A20  6E04               	movwf	??_LCD_Registers_Init^0,c
  3114   000A22  0EF2               	movlw	242
  3115   000A24                     u817:
  3116   000A24  2EE8               	decfsz	wreg,f,c
  3117   000A26  D7FE               	bra	u817
  3118   000A28  2E04               	decfsz	??_LCD_Registers_Init^0,f,c
  3119   000A2A  D7FC               	bra	u817
  3120                           
  3121                           ;lcd.c: 220:     LCD_Write_Cmd(0x0C);
  3122   000A2C  0E0C               	movlw	12
  3123   000A2E  EC9D  F006         	call	_LCD_Write_Cmd
  3124   000A32                     
  3125                           ;lcd.c: 221:     _delay((unsigned long)((20)*(8000000UL/4000.0)));
  3126   000A32  0E34               	movlw	52
  3127   000A34  6E04               	movwf	??_LCD_Registers_Init^0,c
  3128   000A36  0EF2               	movlw	242
  3129   000A38                     u827:
  3130   000A38  2EE8               	decfsz	wreg,f,c
  3131   000A3A  D7FE               	bra	u827
  3132   000A3C  2E04               	decfsz	??_LCD_Registers_Init^0,f,c
  3133   000A3E  D7FC               	bra	u827
  3134   000A40                     
  3135                           ;lcd.c: 222:     LCD_Write_Cmd(0x06);
  3136   000A40  0E06               	movlw	6
  3137   000A42  EC9D  F006         	call	_LCD_Write_Cmd
  3138                           
  3139                           ;lcd.c: 223:     _delay((unsigned long)((20)*(8000000UL/4000.0)));
  3140   000A46  0E34               	movlw	52
  3141   000A48  6E04               	movwf	??_LCD_Registers_Init^0,c
  3142   000A4A  0EF2               	movlw	242
  3143   000A4C                     u837:
  3144   000A4C  2EE8               	decfsz	wreg,f,c
  3145   000A4E  D7FE               	bra	u837
  3146   000A50  2E04               	decfsz	??_LCD_Registers_Init^0,f,c
  3147   000A52  D7FC               	bra	u837
  3148   000A54  0012               	return		;funcret
  3149   000A56                     __end_of_LCD_Registers_Init:
  3150                           	callstack 0
  3151                           
  3152 ;; *************** function _LCD_GPIO_Init *****************
  3153 ;; Defined at:
  3154 ;;		line 200 in file "lcd.c"
  3155 ;; Parameters:    Size  Location     Type
  3156 ;;		None
  3157 ;; Auto vars:     Size  Location     Type
  3158 ;;		None
  3159 ;; Return value:  Size  Location     Type
  3160 ;;                  1    wreg      void 
  3161 ;; Registers used:
  3162 ;;		status,2, status,0, cstack
  3163 ;; Tracked objects:
  3164 ;;		On entry : 0/0
  3165 ;;		On exit  : 0/0
  3166 ;;		Unchanged: 0/0
  3167 ;; Data sizes:     COMRAM   BANK0   BANK1   BANK2   BANK3   BANK4   BANK5
  3168 ;;      Params:         0       0       0       0       0       0       0
  3169 ;;      Locals:         0       0       0       0       0       0       0
  3170 ;;      Temps:          0       0       0       0       0       0       0
  3171 ;;      Totals:         0       0       0       0       0       0       0
  3172 ;;Total ram usage:        0 bytes
  3173 ;; Hardware stack levels used: 1
  3174 ;; Hardware stack levels required when called: 1
  3175 ;; This function calls:
  3176 ;;		_LCD_D4_Output
  3177 ;;		_LCD_D5_Output
  3178 ;;		_LCD_D6_Output
  3179 ;;		_LCD_D7_Output
  3180 ;;		_LCD_E_Output
  3181 ;;		_LCD_RS_Output
  3182 ;;		_LCD_RW_Output
  3183 ;; This function is called by:
  3184 ;;		_LCD_Init
  3185 ;; This function uses a non-reentrant model
  3186 ;;
  3187                           
  3188                           	psect	text34
  3189   000EBA                     __ptext34:
  3190                           	callstack 0
  3191   000EBA                     _LCD_GPIO_Init:
  3192                           	callstack 28
  3193   000EBA                     
  3194                           ;lcd.c: 201:     LCD_RS_Output();
  3195   000EBA  ECAA  F007         	call	_LCD_RS_Output	;wreg free
  3196                           
  3197                           ;lcd.c: 202:     LCD_RW_Output();
  3198   000EBE  ECA6  F007         	call	_LCD_RW_Output	;wreg free
  3199                           
  3200                           ;lcd.c: 203:     LCD_E_Output();
  3201   000EC2  ECAE  F007         	call	_LCD_E_Output	;wreg free
  3202                           
  3203                           ;lcd.c: 204:     LCD_D4_Output();
  3204   000EC6  ECBE  F007         	call	_LCD_D4_Output	;wreg free
  3205                           
  3206                           ;lcd.c: 205:     LCD_D5_Output();
  3207   000ECA  ECBA  F007         	call	_LCD_D5_Output	;wreg free
  3208                           
  3209                           ;lcd.c: 206:     LCD_D6_Output();
  3210   000ECE  ECB6  F007         	call	_LCD_D6_Output	;wreg free
  3211                           
  3212                           ;lcd.c: 207:     LCD_D7_Output();
  3213   000ED2  ECB2  F007         	call	_LCD_D7_Output	;wreg free
  3214   000ED6  0012               	return		;funcret
  3215   000ED8                     __end_of_LCD_GPIO_Init:
  3216                           	callstack 0
  3217                           
  3218 ;; *************** function _LCD_RW_Output *****************
  3219 ;; Defined at:
  3220 ;;		line 61 in file "lcd.c"
  3221 ;; Parameters:    Size  Location     Type
  3222 ;;		None
  3223 ;; Auto vars:     Size  Location     Type
  3224 ;;		None
  3225 ;; Return value:  Size  Location     Type
  3226 ;;                  1    wreg      void 
  3227 ;; Registers used:
  3228 ;;		status,2, status,0
  3229 ;; Tracked objects:
  3230 ;;		On entry : 0/0
  3231 ;;		On exit  : 0/0
  3232 ;;		Unchanged: 0/0
  3233 ;; Data sizes:     COMRAM   BANK0   BANK1   BANK2   BANK3   BANK4   BANK5
  3234 ;;      Params:         0       0       0       0       0       0       0
  3235 ;;      Locals:         0       0       0       0       0       0       0
  3236 ;;      Temps:          0       0       0       0       0       0       0
  3237 ;;      Totals:         0       0       0       0       0       0       0
  3238 ;;Total ram usage:        0 bytes
  3239 ;; Hardware stack levels used: 1
  3240 ;; This function calls:
  3241 ;;		Nothing
  3242 ;; This function is called by:
  3243 ;;		_LCD_GPIO_Init
  3244 ;; This function uses a non-reentrant model
  3245 ;;
  3246                           
  3247                           	psect	text35
  3248   000F4C                     __ptext35:
  3249                           	callstack 0
  3250   000F4C                     _LCD_RW_Output:
  3251                           	callstack 28
  3252   000F4C                     
  3253                           ;lcd.c: 62:     TRISC&=~(1<<0x06U);
  3254   000F4C  9C94               	bcf	148,6,c	;volatile
  3255                           
  3256                           ;lcd.c: 63:     ANSELC&=~(1<<0x06U);
  3257   000F4E  010F               	movlb	15	; () banked
  3258   000F50  9D3A               	bcf	58,6,b	;volatile
  3259   000F52                     
  3260                           ; BSR set to: 15
  3261   000F52  0012               	return		;funcret
  3262   000F54                     __end_of_LCD_RW_Output:
  3263                           	callstack 0
  3264                           
  3265 ;; *************** function _LCD_RS_Output *****************
  3266 ;; Defined at:
  3267 ;;		line 48 in file "lcd.c"
  3268 ;; Parameters:    Size  Location     Type
  3269 ;;		None
  3270 ;; Auto vars:     Size  Location     Type
  3271 ;;		None
  3272 ;; Return value:  Size  Location     Type
  3273 ;;                  1    wreg      void 
  3274 ;; Registers used:
  3275 ;;		status,2, status,0
  3276 ;; Tracked objects:
  3277 ;;		On entry : 0/0
  3278 ;;		On exit  : 0/0
  3279 ;;		Unchanged: 0/0
  3280 ;; Data sizes:     COMRAM   BANK0   BANK1   BANK2   BANK3   BANK4   BANK5
  3281 ;;      Params:         0       0       0       0       0       0       0
  3282 ;;      Locals:         0       0       0       0       0       0       0
  3283 ;;      Temps:          0       0       0       0       0       0       0
  3284 ;;      Totals:         0       0       0       0       0       0       0
  3285 ;;Total ram usage:        0 bytes
  3286 ;; Hardware stack levels used: 1
  3287 ;; This function calls:
  3288 ;;		Nothing
  3289 ;; This function is called by:
  3290 ;;		_LCD_GPIO_Init
  3291 ;; This function uses a non-reentrant model
  3292 ;;
  3293                           
  3294                           	psect	text36
  3295   000F54                     __ptext36:
  3296                           	callstack 0
  3297   000F54                     _LCD_RS_Output:
  3298                           	callstack 28
  3299   000F54                     
  3300                           ;lcd.c: 49:     TRISC&=~(1<<0x02U);
  3301   000F54  9494               	bcf	148,2,c	;volatile
  3302                           
  3303                           ;lcd.c: 50:     ANSELC&=~(1<<0x02U);
  3304   000F56  010F               	movlb	15	; () banked
  3305   000F58  953A               	bcf	58,2,b	;volatile
  3306   000F5A                     
  3307                           ; BSR set to: 15
  3308   000F5A  0012               	return		;funcret
  3309   000F5C                     __end_of_LCD_RS_Output:
  3310                           	callstack 0
  3311                           
  3312 ;; *************** function _LCD_E_Output *****************
  3313 ;; Defined at:
  3314 ;;		line 74 in file "lcd.c"
  3315 ;; Parameters:    Size  Location     Type
  3316 ;;		None
  3317 ;; Auto vars:     Size  Location     Type
  3318 ;;		None
  3319 ;; Return value:  Size  Location     Type
  3320 ;;                  1    wreg      void 
  3321 ;; Registers used:
  3322 ;;		status,2, status,0
  3323 ;; Tracked objects:
  3324 ;;		On entry : 0/0
  3325 ;;		On exit  : 0/0
  3326 ;;		Unchanged: 0/0
  3327 ;; Data sizes:     COMRAM   BANK0   BANK1   BANK2   BANK3   BANK4   BANK5
  3328 ;;      Params:         0       0       0       0       0       0       0
  3329 ;;      Locals:         0       0       0       0       0       0       0
  3330 ;;      Temps:          0       0       0       0       0       0       0
  3331 ;;      Totals:         0       0       0       0       0       0       0
  3332 ;;Total ram usage:        0 bytes
  3333 ;; Hardware stack levels used: 1
  3334 ;; This function calls:
  3335 ;;		Nothing
  3336 ;; This function is called by:
  3337 ;;		_LCD_GPIO_Init
  3338 ;; This function uses a non-reentrant model
  3339 ;;
  3340                           
  3341                           	psect	text37
  3342   000F5C                     __ptext37:
  3343                           	callstack 0
  3344   000F5C                     _LCD_E_Output:
  3345                           	callstack 28
  3346   000F5C                     
  3347                           ;lcd.c: 75:     TRISC&=~(1<<0x07U);
  3348   000F5C  9E94               	bcf	148,7,c	;volatile
  3349                           
  3350                           ;lcd.c: 76:     ANSELC&=~(1<<0x07U);
  3351   000F5E  010F               	movlb	15	; () banked
  3352   000F60  9F3A               	bcf	58,7,b	;volatile
  3353   000F62                     
  3354                           ; BSR set to: 15
  3355   000F62  0012               	return		;funcret
  3356   000F64                     __end_of_LCD_E_Output:
  3357                           	callstack 0
  3358                           
  3359 ;; *************** function _LCD_D7_Output *****************
  3360 ;; Defined at:
  3361 ;;		line 126 in file "lcd.c"
  3362 ;; Parameters:    Size  Location     Type
  3363 ;;		None
  3364 ;; Auto vars:     Size  Location     Type
  3365 ;;		None
  3366 ;; Return value:  Size  Location     Type
  3367 ;;                  1    wreg      void 
  3368 ;; Registers used:
  3369 ;;		status,2, status,0
  3370 ;; Tracked objects:
  3371 ;;		On entry : 0/0
  3372 ;;		On exit  : 0/0
  3373 ;;		Unchanged: 0/0
  3374 ;; Data sizes:     COMRAM   BANK0   BANK1   BANK2   BANK3   BANK4   BANK5
  3375 ;;      Params:         0       0       0       0       0       0       0
  3376 ;;      Locals:         0       0       0       0       0       0       0
  3377 ;;      Temps:          0       0       0       0       0       0       0
  3378 ;;      Totals:         0       0       0       0       0       0       0
  3379 ;;Total ram usage:        0 bytes
  3380 ;; Hardware stack levels used: 1
  3381 ;; This function calls:
  3382 ;;		Nothing
  3383 ;; This function is called by:
  3384 ;;		_LCD_GPIO_Init
  3385 ;; This function uses a non-reentrant model
  3386 ;;
  3387                           
  3388                           	psect	text38
  3389   000F64                     __ptext38:
  3390                           	callstack 0
  3391   000F64                     _LCD_D7_Output:
  3392                           	callstack 28
  3393   000F64                     
  3394                           ;lcd.c: 127:     TRISB&=~(1<<0x07U);
  3395   000F64  9E93               	bcf	147,7,c	;volatile
  3396                           
  3397                           ;lcd.c: 128:     ANSELB&=~(1<<0x07U);
  3398   000F66  010F               	movlb	15	; () banked
  3399   000F68  9F39               	bcf	57,7,b	;volatile
  3400   000F6A                     
  3401                           ; BSR set to: 15
  3402   000F6A  0012               	return		;funcret
  3403   000F6C                     __end_of_LCD_D7_Output:
  3404                           	callstack 0
  3405                           
  3406 ;; *************** function _LCD_D6_Output *****************
  3407 ;; Defined at:
  3408 ;;		line 113 in file "lcd.c"
  3409 ;; Parameters:    Size  Location     Type
  3410 ;;		None
  3411 ;; Auto vars:     Size  Location     Type
  3412 ;;		None
  3413 ;; Return value:  Size  Location     Type
  3414 ;;                  1    wreg      void 
  3415 ;; Registers used:
  3416 ;;		status,2, status,0
  3417 ;; Tracked objects:
  3418 ;;		On entry : 0/0
  3419 ;;		On exit  : 0/0
  3420 ;;		Unchanged: 0/0
  3421 ;; Data sizes:     COMRAM   BANK0   BANK1   BANK2   BANK3   BANK4   BANK5
  3422 ;;      Params:         0       0       0       0       0       0       0
  3423 ;;      Locals:         0       0       0       0       0       0       0
  3424 ;;      Temps:          0       0       0       0       0       0       0
  3425 ;;      Totals:         0       0       0       0       0       0       0
  3426 ;;Total ram usage:        0 bytes
  3427 ;; Hardware stack levels used: 1
  3428 ;; This function calls:
  3429 ;;		Nothing
  3430 ;; This function is called by:
  3431 ;;		_LCD_GPIO_Init
  3432 ;; This function uses a non-reentrant model
  3433 ;;
  3434                           
  3435                           	psect	text39
  3436   000F6C                     __ptext39:
  3437                           	callstack 0
  3438   000F6C                     _LCD_D6_Output:
  3439                           	callstack 28
  3440   000F6C                     
  3441                           ;lcd.c: 114:     TRISB&=~(1<<0x06U);
  3442   000F6C  9C93               	bcf	147,6,c	;volatile
  3443                           
  3444                           ;lcd.c: 115:     ANSELB&=~(1<<0x06U);
  3445   000F6E  010F               	movlb	15	; () banked
  3446   000F70  9D39               	bcf	57,6,b	;volatile
  3447   000F72                     
  3448                           ; BSR set to: 15
  3449   000F72  0012               	return		;funcret
  3450   000F74                     __end_of_LCD_D6_Output:
  3451                           	callstack 0
  3452                           
  3453 ;; *************** function _LCD_D5_Output *****************
  3454 ;; Defined at:
  3455 ;;		line 100 in file "lcd.c"
  3456 ;; Parameters:    Size  Location     Type
  3457 ;;		None
  3458 ;; Auto vars:     Size  Location     Type
  3459 ;;		None
  3460 ;; Return value:  Size  Location     Type
  3461 ;;                  1    wreg      void 
  3462 ;; Registers used:
  3463 ;;		status,2, status,0
  3464 ;; Tracked objects:
  3465 ;;		On entry : 0/0
  3466 ;;		On exit  : 0/0
  3467 ;;		Unchanged: 0/0
  3468 ;; Data sizes:     COMRAM   BANK0   BANK1   BANK2   BANK3   BANK4   BANK5
  3469 ;;      Params:         0       0       0       0       0       0       0
  3470 ;;      Locals:         0       0       0       0       0       0       0
  3471 ;;      Temps:          0       0       0       0       0       0       0
  3472 ;;      Totals:         0       0       0       0       0       0       0
  3473 ;;Total ram usage:        0 bytes
  3474 ;; Hardware stack levels used: 1
  3475 ;; This function calls:
  3476 ;;		Nothing
  3477 ;; This function is called by:
  3478 ;;		_LCD_GPIO_Init
  3479 ;; This function uses a non-reentrant model
  3480 ;;
  3481                           
  3482                           	psect	text40
  3483   000F74                     __ptext40:
  3484                           	callstack 0
  3485   000F74                     _LCD_D5_Output:
  3486                           	callstack 28
  3487   000F74                     
  3488                           ;lcd.c: 101:     TRISB&=~(1<<0x05U);
  3489   000F74  9A93               	bcf	147,5,c	;volatile
  3490                           
  3491                           ;lcd.c: 102:     ANSELB&=~(1<<0x05U);
  3492   000F76  010F               	movlb	15	; () banked
  3493   000F78  9B39               	bcf	57,5,b	;volatile
  3494   000F7A                     
  3495                           ; BSR set to: 15
  3496   000F7A  0012               	return		;funcret
  3497   000F7C                     __end_of_LCD_D5_Output:
  3498                           	callstack 0
  3499                           
  3500 ;; *************** function _LCD_D4_Output *****************
  3501 ;; Defined at:
  3502 ;;		line 87 in file "lcd.c"
  3503 ;; Parameters:    Size  Location     Type
  3504 ;;		None
  3505 ;; Auto vars:     Size  Location     Type
  3506 ;;		None
  3507 ;; Return value:  Size  Location     Type
  3508 ;;                  1    wreg      void 
  3509 ;; Registers used:
  3510 ;;		status,2, status,0
  3511 ;; Tracked objects:
  3512 ;;		On entry : 0/0
  3513 ;;		On exit  : 0/0
  3514 ;;		Unchanged: 0/0
  3515 ;; Data sizes:     COMRAM   BANK0   BANK1   BANK2   BANK3   BANK4   BANK5
  3516 ;;      Params:         0       0       0       0       0       0       0
  3517 ;;      Locals:         0       0       0       0       0       0       0
  3518 ;;      Temps:          0       0       0       0       0       0       0
  3519 ;;      Totals:         0       0       0       0       0       0       0
  3520 ;;Total ram usage:        0 bytes
  3521 ;; Hardware stack levels used: 1
  3522 ;; This function calls:
  3523 ;;		Nothing
  3524 ;; This function is called by:
  3525 ;;		_LCD_GPIO_Init
  3526 ;; This function uses a non-reentrant model
  3527 ;;
  3528                           
  3529                           	psect	text41
  3530   000F7C                     __ptext41:
  3531                           	callstack 0
  3532   000F7C                     _LCD_D4_Output:
  3533                           	callstack 28
  3534   000F7C                     
  3535                           ;lcd.c: 88:     TRISB&=~(1<<0x04U);
  3536   000F7C  9893               	bcf	147,4,c	;volatile
  3537                           
  3538                           ;lcd.c: 89:     ANSELB&=~(1<<0x04U);
  3539   000F7E  010F               	movlb	15	; () banked
  3540   000F80  9939               	bcf	57,4,b	;volatile
  3541   000F82                     
  3542                           ; BSR set to: 15
  3543   000F82  0012               	return		;funcret
  3544   000F84                     __end_of_LCD_D4_Output:
  3545                           	callstack 0
  3546                           
  3547 ;; *************** function _LCD_Clear *****************
  3548 ;; Defined at:
  3549 ;;		line 194 in file "lcd.c"
  3550 ;; Parameters:    Size  Location     Type
  3551 ;;		None
  3552 ;; Auto vars:     Size  Location     Type
  3553 ;;		None
  3554 ;; Return value:  Size  Location     Type
  3555 ;;                  1    wreg      void 
  3556 ;; Registers used:
  3557 ;;		wreg, status,2, status,0, cstack
  3558 ;; Tracked objects:
  3559 ;;		On entry : 0/0
  3560 ;;		On exit  : 0/0
  3561 ;;		Unchanged: 0/0
  3562 ;; Data sizes:     COMRAM   BANK0   BANK1   BANK2   BANK3   BANK4   BANK5
  3563 ;;      Params:         0       0       0       0       0       0       0
  3564 ;;      Locals:         0       0       0       0       0       0       0
  3565 ;;      Temps:          1       0       0       0       0       0       0
  3566 ;;      Totals:         1       0       0       0       0       0       0
  3567 ;;Total ram usage:        1 bytes
  3568 ;; Hardware stack levels used: 1
  3569 ;; Hardware stack levels required when called: 3
  3570 ;; This function calls:
  3571 ;;		_LCD_Write_Cmd
  3572 ;; This function is called by:
  3573 ;;		_main
  3574 ;;		_LCD_Init
  3575 ;; This function uses a non-reentrant model
  3576 ;;
  3577                           
  3578                           	psect	text42
  3579   000ED8                     __ptext42:
  3580                           	callstack 0
  3581   000ED8                     _LCD_Clear:
  3582                           	callstack 26
  3583   000ED8                     
  3584                           ;lcd.c: 195:     LCD_Write_Cmd(0x00);
  3585   000ED8  0E00               	movlw	0
  3586   000EDA  EC9D  F006         	call	_LCD_Write_Cmd
  3587                           
  3588                           ;lcd.c: 196:     LCD_Write_Cmd(0x01);
  3589   000EDE  0E01               	movlw	1
  3590   000EE0  EC9D  F006         	call	_LCD_Write_Cmd
  3591   000EE4                     
  3592                           ;lcd.c: 197:     _delay((unsigned long)((20)*(8000000UL/4000.0)));
  3593   000EE4  0E34               	movlw	52
  3594   000EE6  6E04               	movwf	??_LCD_Clear^0,c
  3595   000EE8  0EF2               	movlw	242
  3596   000EEA                     u847:
  3597   000EEA  2EE8               	decfsz	wreg,f,c
  3598   000EEC  D7FE               	bra	u847
  3599   000EEE  2E04               	decfsz	??_LCD_Clear^0,f,c
  3600   000EF0  D7FC               	bra	u847
  3601   000EF2  0012               	return		;funcret
  3602   000EF4                     __end_of_LCD_Clear:
  3603                           	callstack 0
  3604                           
  3605 ;; *************** function _LCD_Write_Cmd *****************
  3606 ;; Defined at:
  3607 ;;		line 162 in file "lcd.c"
  3608 ;; Parameters:    Size  Location     Type
  3609 ;;  val             1    wreg     unsigned char 
  3610 ;; Auto vars:     Size  Location     Type
  3611 ;;  val             1    2[COMRAM] unsigned char 
  3612 ;; Return value:  Size  Location     Type
  3613 ;;                  1    wreg      void 
  3614 ;; Registers used:
  3615 ;;		wreg, status,2, status,0, cstack
  3616 ;; Tracked objects:
  3617 ;;		On entry : 0/0
  3618 ;;		On exit  : 0/0
  3619 ;;		Unchanged: 0/0
  3620 ;; Data sizes:     COMRAM   BANK0   BANK1   BANK2   BANK3   BANK4   BANK5
  3621 ;;      Params:         0       0       0       0       0       0       0
  3622 ;;      Locals:         1       0       0       0       0       0       0
  3623 ;;      Temps:          1       0       0       0       0       0       0
  3624 ;;      Totals:         2       0       0       0       0       0       0
  3625 ;;Total ram usage:        2 bytes
  3626 ;; Hardware stack levels used: 1
  3627 ;; Hardware stack levels required when called: 2
  3628 ;; This function calls:
  3629 ;;		_LCD_E_Output_High
  3630 ;;		_LCD_E_Output_Low
  3631 ;;		_LCD_RS_Output_Low
  3632 ;;		_LCD_Write_Nibble_To_Data_Pins
  3633 ;; This function is called by:
  3634 ;;		_LCD_Clear
  3635 ;;		_LCD_Registers_Init
  3636 ;; This function uses a non-reentrant model
  3637 ;;
  3638                           
  3639                           	psect	text43
  3640   000D3A                     __ptext43:
  3641                           	callstack 0
  3642   000D3A                     _LCD_Write_Cmd:
  3643                           	callstack 26
  3644                           
  3645                           ;incstack = 0
  3646                           ;LCD_Write_Cmd@val stored from wreg
  3647   000D3A  6E03               	movwf	LCD_Write_Cmd@val^0,c
  3648   000D3C                     
  3649                           ;lcd.c: 163:     LCD_RS_Output_Low();
  3650   000D3C  ECE3  F007         	call	_LCD_RS_Output_Low	;wreg free
  3651   000D40                     
  3652                           ;lcd.c: 164:     LCD_Write_Nibble_To_Data_Pins(val>>4);
  3653   000D40  3803               	swapf	LCD_Write_Cmd@val^0,w,c
  3654   000D42  0B0F               	andlw	15
  3655   000D44  ECA8  F005         	call	_LCD_Write_Nibble_To_Data_Pins
  3656   000D48                     
  3657                           ;lcd.c: 165:     LCD_E_Output_High();
  3658   000D48  ECE7  F007         	call	_LCD_E_Output_High	;wreg free
  3659   000D4C                     
  3660                           ;lcd.c: 166:     _delay((unsigned long)((20)*(8000000UL/4000.0)));
  3661   000D4C  0E34               	movlw	52
  3662   000D4E  6E02               	movwf	??_LCD_Write_Cmd^0,c
  3663   000D50  0EF2               	movlw	242
  3664   000D52                     u857:
  3665   000D52  2EE8               	decfsz	wreg,f,c
  3666   000D54  D7FE               	bra	u857
  3667   000D56  2E02               	decfsz	??_LCD_Write_Cmd^0,f,c
  3668   000D58  D7FC               	bra	u857
  3669                           
  3670                           ;lcd.c: 167:     LCD_E_Output_Low();
  3671   000D5A  ECE5  F007         	call	_LCD_E_Output_Low	;wreg free
  3672   000D5E                     
  3673                           ;lcd.c: 168:     LCD_Write_Nibble_To_Data_Pins(val & 0x0F);
  3674   000D5E  5003               	movf	LCD_Write_Cmd@val^0,w,c
  3675   000D60  0B0F               	andlw	15
  3676   000D62  ECA8  F005         	call	_LCD_Write_Nibble_To_Data_Pins
  3677   000D66                     
  3678                           ;lcd.c: 169:     LCD_E_Output_High();
  3679   000D66  ECE7  F007         	call	_LCD_E_Output_High	;wreg free
  3680   000D6A                     
  3681                           ;lcd.c: 170:     _delay((unsigned long)((20)*(8000000UL/4000.0)));
  3682   000D6A  0E34               	movlw	52
  3683   000D6C  6E02               	movwf	??_LCD_Write_Cmd^0,c
  3684   000D6E  0EF2               	movlw	242
  3685   000D70                     u867:
  3686   000D70  2EE8               	decfsz	wreg,f,c
  3687   000D72  D7FE               	bra	u867
  3688   000D74  2E02               	decfsz	??_LCD_Write_Cmd^0,f,c
  3689   000D76  D7FC               	bra	u867
  3690                           
  3691                           ;lcd.c: 171:     LCD_E_Output_Low();
  3692   000D78  ECE5  F007         	call	_LCD_E_Output_Low	;wreg free
  3693   000D7C  0012               	return		;funcret
  3694   000D7E                     __end_of_LCD_Write_Cmd:
  3695                           	callstack 0
  3696                           
  3697 ;; *************** function _LCD_Write_Nibble_To_Data_Pins *****************
  3698 ;; Defined at:
  3699 ;;		line 139 in file "lcd.c"
  3700 ;; Parameters:    Size  Location     Type
  3701 ;;  val             1    wreg     unsigned char 
  3702 ;; Auto vars:     Size  Location     Type
  3703 ;;  val             1    0[COMRAM] unsigned char 
  3704 ;; Return value:  Size  Location     Type
  3705 ;;                  1    wreg      void 
  3706 ;; Registers used:
  3707 ;;		wreg, status,2, status,0, cstack
  3708 ;; Tracked objects:
  3709 ;;		On entry : 0/0
  3710 ;;		On exit  : 0/0
  3711 ;;		Unchanged: 0/0
  3712 ;; Data sizes:     COMRAM   BANK0   BANK1   BANK2   BANK3   BANK4   BANK5
  3713 ;;      Params:         0       0       0       0       0       0       0
  3714 ;;      Locals:         1       0       0       0       0       0       0
  3715 ;;      Temps:          0       0       0       0       0       0       0
  3716 ;;      Totals:         1       0       0       0       0       0       0
  3717 ;;Total ram usage:        1 bytes
  3718 ;; Hardware stack levels used: 1
  3719 ;; Hardware stack levels required when called: 1
  3720 ;; This function calls:
  3721 ;;		_LCD_D4_Output_High
  3722 ;;		_LCD_D4_Output_Low
  3723 ;;		_LCD_D5_Output_High
  3724 ;;		_LCD_D5_Output_Low
  3725 ;;		_LCD_D6_Output_High
  3726 ;;		_LCD_D6_Output_Low
  3727 ;;		_LCD_D7_Output_High
  3728 ;;		_LCD_D7_Output_Low
  3729 ;; This function is called by:
  3730 ;;		_LCD_Write_Cmd
  3731 ;;		_LCD_Write_Data
  3732 ;; This function uses a non-reentrant model
  3733 ;;
  3734                           
  3735                           	psect	text44
  3736   000B50                     __ptext44:
  3737                           	callstack 0
  3738   000B50                     _LCD_Write_Nibble_To_Data_Pins:
  3739                           	callstack 27
  3740                           
  3741                           ;incstack = 0
  3742                           ;LCD_Write_Nibble_To_Data_Pins@val stored from wreg
  3743   000B50  6E01               	movwf	LCD_Write_Nibble_To_Data_Pins@val^0,c
  3744   000B52                     
  3745                           ;lcd.c: 140:     if(val & 0x01){
  3746   000B52  A001               	btfss	LCD_Write_Nibble_To_Data_Pins@val^0,0,c
  3747   000B54  EFAE  F005         	goto	u121
  3748   000B58  EFB0  F005         	goto	u120
  3749   000B5C                     u121:
  3750   000B5C  EFB4  F005         	goto	l1129
  3751   000B60                     u120:
  3752   000B60                     
  3753                           ;lcd.c: 141:         LCD_D4_Output_High();
  3754   000B60  ECE1  F007         	call	_LCD_D4_Output_High	;wreg free
  3755                           
  3756                           ;lcd.c: 142:     }else{
  3757   000B64  EFB6  F005         	goto	l1131
  3758   000B68                     l1129:
  3759                           
  3760                           ;lcd.c: 143:         LCD_D4_Output_Low();
  3761   000B68  ECDF  F007         	call	_LCD_D4_Output_Low	;wreg free
  3762   000B6C                     l1131:
  3763                           
  3764                           ;lcd.c: 145:     if(val & 0x02){
  3765   000B6C  A201               	btfss	LCD_Write_Nibble_To_Data_Pins@val^0,1,c
  3766   000B6E  EFBB  F005         	goto	u131
  3767   000B72  EFBD  F005         	goto	u130
  3768   000B76                     u131:
  3769   000B76  EFC1  F005         	goto	l1135
  3770   000B7A                     u130:
  3771   000B7A                     
  3772                           ;lcd.c: 146:         LCD_D5_Output_High();
  3773   000B7A  ECDD  F007         	call	_LCD_D5_Output_High	;wreg free
  3774                           
  3775                           ;lcd.c: 147:     }else{
  3776   000B7E  EFC3  F005         	goto	l1137
  3777   000B82                     l1135:
  3778                           
  3779                           ;lcd.c: 148:         LCD_D5_Output_Low();
  3780   000B82  ECDB  F007         	call	_LCD_D5_Output_Low	;wreg free
  3781   000B86                     l1137:
  3782                           
  3783                           ;lcd.c: 150:     if(val & 0x04){
  3784   000B86  A401               	btfss	LCD_Write_Nibble_To_Data_Pins@val^0,2,c
  3785   000B88  EFC8  F005         	goto	u141
  3786   000B8C  EFCA  F005         	goto	u140
  3787   000B90                     u141:
  3788   000B90  EFCE  F005         	goto	l1141
  3789   000B94                     u140:
  3790   000B94                     
  3791                           ;lcd.c: 151:         LCD_D6_Output_High();
  3792   000B94  ECD9  F007         	call	_LCD_D6_Output_High	;wreg free
  3793                           
  3794                           ;lcd.c: 152:     }else{
  3795   000B98  EFD0  F005         	goto	l1143
  3796   000B9C                     l1141:
  3797                           
  3798                           ;lcd.c: 153:         LCD_D6_Output_Low();
  3799   000B9C  ECD7  F007         	call	_LCD_D6_Output_Low	;wreg free
  3800   000BA0                     l1143:
  3801                           
  3802                           ;lcd.c: 155:     if(val & 0x08){
  3803   000BA0  A601               	btfss	LCD_Write_Nibble_To_Data_Pins@val^0,3,c
  3804   000BA2  EFD5  F005         	goto	u151
  3805   000BA6  EFD7  F005         	goto	u150
  3806   000BAA                     u151:
  3807   000BAA  EFDB  F005         	goto	l1147
  3808   000BAE                     u150:
  3809   000BAE                     
  3810                           ;lcd.c: 156:         LCD_D7_Output_High();
  3811   000BAE  ECD5  F007         	call	_LCD_D7_Output_High	;wreg free
  3812                           
  3813                           ;lcd.c: 157:     }else{
  3814   000BB2  EFDD  F005         	goto	l279
  3815   000BB6                     l1147:
  3816                           
  3817                           ;lcd.c: 158:         LCD_D7_Output_Low();
  3818   000BB6  ECD3  F007         	call	_LCD_D7_Output_Low	;wreg free
  3819   000BBA                     l279:
  3820   000BBA  0012               	return		;funcret
  3821   000BBC                     __end_of_LCD_Write_Nibble_To_Data_Pins:
  3822                           	callstack 0
  3823                           
  3824 ;; *************** function _LCD_D7_Output_Low *****************
  3825 ;; Defined at:
  3826 ;;		line 131 in file "lcd.c"
  3827 ;; Parameters:    Size  Location     Type
  3828 ;;		None
  3829 ;; Auto vars:     Size  Location     Type
  3830 ;;		None
  3831 ;; Return value:  Size  Location     Type
  3832 ;;                  1    wreg      void 
  3833 ;; Registers used:
  3834 ;;		status,2, status,0
  3835 ;; Tracked objects:
  3836 ;;		On entry : 0/0
  3837 ;;		On exit  : 0/0
  3838 ;;		Unchanged: 0/0
  3839 ;; Data sizes:     COMRAM   BANK0   BANK1   BANK2   BANK3   BANK4   BANK5
  3840 ;;      Params:         0       0       0       0       0       0       0
  3841 ;;      Locals:         0       0       0       0       0       0       0
  3842 ;;      Temps:          0       0       0       0       0       0       0
  3843 ;;      Totals:         0       0       0       0       0       0       0
  3844 ;;Total ram usage:        0 bytes
  3845 ;; Hardware stack levels used: 1
  3846 ;; This function calls:
  3847 ;;		Nothing
  3848 ;; This function is called by:
  3849 ;;		_LCD_Write_Nibble_To_Data_Pins
  3850 ;; This function uses a non-reentrant model
  3851 ;;
  3852                           
  3853                           	psect	text45
  3854   000FA6                     __ptext45:
  3855                           	callstack 0
  3856   000FA6                     _LCD_D7_Output_Low:
  3857                           	callstack 27
  3858   000FA6                     
  3859                           ;lcd.c: 132:     LATB&=~(1<<0x07U);
  3860   000FA6  9E8A               	bcf	138,7,c	;volatile
  3861   000FA8  0012               	return		;funcret
  3862   000FAA                     __end_of_LCD_D7_Output_Low:
  3863                           	callstack 0
  3864                           
  3865 ;; *************** function _LCD_D7_Output_High *****************
  3866 ;; Defined at:
  3867 ;;		line 135 in file "lcd.c"
  3868 ;; Parameters:    Size  Location     Type
  3869 ;;		None
  3870 ;; Auto vars:     Size  Location     Type
  3871 ;;		None
  3872 ;; Return value:  Size  Location     Type
  3873 ;;                  1    wreg      void 
  3874 ;; Registers used:
  3875 ;;		status,2, status,0
  3876 ;; Tracked objects:
  3877 ;;		On entry : 0/0
  3878 ;;		On exit  : 0/0
  3879 ;;		Unchanged: 0/0
  3880 ;; Data sizes:     COMRAM   BANK0   BANK1   BANK2   BANK3   BANK4   BANK5
  3881 ;;      Params:         0       0       0       0       0       0       0
  3882 ;;      Locals:         0       0       0       0       0       0       0
  3883 ;;      Temps:          0       0       0       0       0       0       0
  3884 ;;      Totals:         0       0       0       0       0       0       0
  3885 ;;Total ram usage:        0 bytes
  3886 ;; Hardware stack levels used: 1
  3887 ;; This function calls:
  3888 ;;		Nothing
  3889 ;; This function is called by:
  3890 ;;		_LCD_Write_Nibble_To_Data_Pins
  3891 ;; This function uses a non-reentrant model
  3892 ;;
  3893                           
  3894                           	psect	text46
  3895   000FAA                     __ptext46:
  3896                           	callstack 0
  3897   000FAA                     _LCD_D7_Output_High:
  3898                           	callstack 27
  3899   000FAA                     
  3900                           ;lcd.c: 136:     LATB|=(1<<0x07U);
  3901   000FAA  8E8A               	bsf	138,7,c	;volatile
  3902   000FAC  0012               	return		;funcret
  3903   000FAE                     __end_of_LCD_D7_Output_High:
  3904                           	callstack 0
  3905                           
  3906 ;; *************** function _LCD_D6_Output_Low *****************
  3907 ;; Defined at:
  3908 ;;		line 118 in file "lcd.c"
  3909 ;; Parameters:    Size  Location     Type
  3910 ;;		None
  3911 ;; Auto vars:     Size  Location     Type
  3912 ;;		None
  3913 ;; Return value:  Size  Location     Type
  3914 ;;                  1    wreg      void 
  3915 ;; Registers used:
  3916 ;;		status,2, status,0
  3917 ;; Tracked objects:
  3918 ;;		On entry : 0/0
  3919 ;;		On exit  : 0/0
  3920 ;;		Unchanged: 0/0
  3921 ;; Data sizes:     COMRAM   BANK0   BANK1   BANK2   BANK3   BANK4   BANK5
  3922 ;;      Params:         0       0       0       0       0       0       0
  3923 ;;      Locals:         0       0       0       0       0       0       0
  3924 ;;      Temps:          0       0       0       0       0       0       0
  3925 ;;      Totals:         0       0       0       0       0       0       0
  3926 ;;Total ram usage:        0 bytes
  3927 ;; Hardware stack levels used: 1
  3928 ;; This function calls:
  3929 ;;		Nothing
  3930 ;; This function is called by:
  3931 ;;		_LCD_Write_Nibble_To_Data_Pins
  3932 ;; This function uses a non-reentrant model
  3933 ;;
  3934                           
  3935                           	psect	text47
  3936   000FAE                     __ptext47:
  3937                           	callstack 0
  3938   000FAE                     _LCD_D6_Output_Low:
  3939                           	callstack 27
  3940   000FAE                     
  3941                           ;lcd.c: 119:     LATB&=~(1<<0x06U);
  3942   000FAE  9C8A               	bcf	138,6,c	;volatile
  3943   000FB0  0012               	return		;funcret
  3944   000FB2                     __end_of_LCD_D6_Output_Low:
  3945                           	callstack 0
  3946                           
  3947 ;; *************** function _LCD_D6_Output_High *****************
  3948 ;; Defined at:
  3949 ;;		line 122 in file "lcd.c"
  3950 ;; Parameters:    Size  Location     Type
  3951 ;;		None
  3952 ;; Auto vars:     Size  Location     Type
  3953 ;;		None
  3954 ;; Return value:  Size  Location     Type
  3955 ;;                  1    wreg      void 
  3956 ;; Registers used:
  3957 ;;		status,2, status,0
  3958 ;; Tracked objects:
  3959 ;;		On entry : 0/0
  3960 ;;		On exit  : 0/0
  3961 ;;		Unchanged: 0/0
  3962 ;; Data sizes:     COMRAM   BANK0   BANK1   BANK2   BANK3   BANK4   BANK5
  3963 ;;      Params:         0       0       0       0       0       0       0
  3964 ;;      Locals:         0       0       0       0       0       0       0
  3965 ;;      Temps:          0       0       0       0       0       0       0
  3966 ;;      Totals:         0       0       0       0       0       0       0
  3967 ;;Total ram usage:        0 bytes
  3968 ;; Hardware stack levels used: 1
  3969 ;; This function calls:
  3970 ;;		Nothing
  3971 ;; This function is called by:
  3972 ;;		_LCD_Write_Nibble_To_Data_Pins
  3973 ;; This function uses a non-reentrant model
  3974 ;;
  3975                           
  3976                           	psect	text48
  3977   000FB2                     __ptext48:
  3978                           	callstack 0
  3979   000FB2                     _LCD_D6_Output_High:
  3980                           	callstack 27
  3981   000FB2                     
  3982                           ;lcd.c: 123:     LATB|=(1<<0x06U);
  3983   000FB2  8C8A               	bsf	138,6,c	;volatile
  3984   000FB4  0012               	return		;funcret
  3985   000FB6                     __end_of_LCD_D6_Output_High:
  3986                           	callstack 0
  3987                           
  3988 ;; *************** function _LCD_D5_Output_Low *****************
  3989 ;; Defined at:
  3990 ;;		line 105 in file "lcd.c"
  3991 ;; Parameters:    Size  Location     Type
  3992 ;;		None
  3993 ;; Auto vars:     Size  Location     Type
  3994 ;;		None
  3995 ;; Return value:  Size  Location     Type
  3996 ;;                  1    wreg      void 
  3997 ;; Registers used:
  3998 ;;		status,2, status,0
  3999 ;; Tracked objects:
  4000 ;;		On entry : 0/0
  4001 ;;		On exit  : 0/0
  4002 ;;		Unchanged: 0/0
  4003 ;; Data sizes:     COMRAM   BANK0   BANK1   BANK2   BANK3   BANK4   BANK5
  4004 ;;      Params:         0       0       0       0       0       0       0
  4005 ;;      Locals:         0       0       0       0       0       0       0
  4006 ;;      Temps:          0       0       0       0       0       0       0
  4007 ;;      Totals:         0       0       0       0       0       0       0
  4008 ;;Total ram usage:        0 bytes
  4009 ;; Hardware stack levels used: 1
  4010 ;; This function calls:
  4011 ;;		Nothing
  4012 ;; This function is called by:
  4013 ;;		_LCD_Write_Nibble_To_Data_Pins
  4014 ;; This function uses a non-reentrant model
  4015 ;;
  4016                           
  4017                           	psect	text49
  4018   000FB6                     __ptext49:
  4019                           	callstack 0
  4020   000FB6                     _LCD_D5_Output_Low:
  4021                           	callstack 27
  4022   000FB6                     
  4023                           ;lcd.c: 106:     LATB&=~(1<<0x05U);
  4024   000FB6  9A8A               	bcf	138,5,c	;volatile
  4025   000FB8  0012               	return		;funcret
  4026   000FBA                     __end_of_LCD_D5_Output_Low:
  4027                           	callstack 0
  4028                           
  4029 ;; *************** function _LCD_D5_Output_High *****************
  4030 ;; Defined at:
  4031 ;;		line 109 in file "lcd.c"
  4032 ;; Parameters:    Size  Location     Type
  4033 ;;		None
  4034 ;; Auto vars:     Size  Location     Type
  4035 ;;		None
  4036 ;; Return value:  Size  Location     Type
  4037 ;;                  1    wreg      void 
  4038 ;; Registers used:
  4039 ;;		status,2, status,0
  4040 ;; Tracked objects:
  4041 ;;		On entry : 0/0
  4042 ;;		On exit  : 0/0
  4043 ;;		Unchanged: 0/0
  4044 ;; Data sizes:     COMRAM   BANK0   BANK1   BANK2   BANK3   BANK4   BANK5
  4045 ;;      Params:         0       0       0       0       0       0       0
  4046 ;;      Locals:         0       0       0       0       0       0       0
  4047 ;;      Temps:          0       0       0       0       0       0       0
  4048 ;;      Totals:         0       0       0       0       0       0       0
  4049 ;;Total ram usage:        0 bytes
  4050 ;; Hardware stack levels used: 1
  4051 ;; This function calls:
  4052 ;;		Nothing
  4053 ;; This function is called by:
  4054 ;;		_LCD_Write_Nibble_To_Data_Pins
  4055 ;; This function uses a non-reentrant model
  4056 ;;
  4057                           
  4058                           	psect	text50
  4059   000FBA                     __ptext50:
  4060                           	callstack 0
  4061   000FBA                     _LCD_D5_Output_High:
  4062                           	callstack 27
  4063   000FBA                     
  4064                           ;lcd.c: 110:     LATB|=(1<<0x05U);
  4065   000FBA  8A8A               	bsf	138,5,c	;volatile
  4066   000FBC  0012               	return		;funcret
  4067   000FBE                     __end_of_LCD_D5_Output_High:
  4068                           	callstack 0
  4069                           
  4070 ;; *************** function _LCD_D4_Output_Low *****************
  4071 ;; Defined at:
  4072 ;;		line 92 in file "lcd.c"
  4073 ;; Parameters:    Size  Location     Type
  4074 ;;		None
  4075 ;; Auto vars:     Size  Location     Type
  4076 ;;		None
  4077 ;; Return value:  Size  Location     Type
  4078 ;;                  1    wreg      void 
  4079 ;; Registers used:
  4080 ;;		status,2, status,0
  4081 ;; Tracked objects:
  4082 ;;		On entry : 0/0
  4083 ;;		On exit  : 0/0
  4084 ;;		Unchanged: 0/0
  4085 ;; Data sizes:     COMRAM   BANK0   BANK1   BANK2   BANK3   BANK4   BANK5
  4086 ;;      Params:         0       0       0       0       0       0       0
  4087 ;;      Locals:         0       0       0       0       0       0       0
  4088 ;;      Temps:          0       0       0       0       0       0       0
  4089 ;;      Totals:         0       0       0       0       0       0       0
  4090 ;;Total ram usage:        0 bytes
  4091 ;; Hardware stack levels used: 1
  4092 ;; This function calls:
  4093 ;;		Nothing
  4094 ;; This function is called by:
  4095 ;;		_LCD_Write_Nibble_To_Data_Pins
  4096 ;; This function uses a non-reentrant model
  4097 ;;
  4098                           
  4099                           	psect	text51
  4100   000FBE                     __ptext51:
  4101                           	callstack 0
  4102   000FBE                     _LCD_D4_Output_Low:
  4103                           	callstack 27
  4104   000FBE                     
  4105                           ;lcd.c: 93:     LATB&=~(1<<0x04U);
  4106   000FBE  988A               	bcf	138,4,c	;volatile
  4107   000FC0  0012               	return		;funcret
  4108   000FC2                     __end_of_LCD_D4_Output_Low:
  4109                           	callstack 0
  4110                           
  4111 ;; *************** function _LCD_D4_Output_High *****************
  4112 ;; Defined at:
  4113 ;;		line 96 in file "lcd.c"
  4114 ;; Parameters:    Size  Location     Type
  4115 ;;		None
  4116 ;; Auto vars:     Size  Location     Type
  4117 ;;		None
  4118 ;; Return value:  Size  Location     Type
  4119 ;;                  1    wreg      void 
  4120 ;; Registers used:
  4121 ;;		status,2, status,0
  4122 ;; Tracked objects:
  4123 ;;		On entry : 0/0
  4124 ;;		On exit  : 0/0
  4125 ;;		Unchanged: 0/0
  4126 ;; Data sizes:     COMRAM   BANK0   BANK1   BANK2   BANK3   BANK4   BANK5
  4127 ;;      Params:         0       0       0       0       0       0       0
  4128 ;;      Locals:         0       0       0       0       0       0       0
  4129 ;;      Temps:          0       0       0       0       0       0       0
  4130 ;;      Totals:         0       0       0       0       0       0       0
  4131 ;;Total ram usage:        0 bytes
  4132 ;; Hardware stack levels used: 1
  4133 ;; This function calls:
  4134 ;;		Nothing
  4135 ;; This function is called by:
  4136 ;;		_LCD_Write_Nibble_To_Data_Pins
  4137 ;; This function uses a non-reentrant model
  4138 ;;
  4139                           
  4140                           	psect	text52
  4141   000FC2                     __ptext52:
  4142                           	callstack 0
  4143   000FC2                     _LCD_D4_Output_High:
  4144                           	callstack 27
  4145   000FC2                     
  4146                           ;lcd.c: 97:     LATB|=(1<<0x04U);
  4147   000FC2  888A               	bsf	138,4,c	;volatile
  4148   000FC4  0012               	return		;funcret
  4149   000FC6                     __end_of_LCD_D4_Output_High:
  4150                           	callstack 0
  4151                           
  4152 ;; *************** function _LCD_RS_Output_Low *****************
  4153 ;; Defined at:
  4154 ;;		line 53 in file "lcd.c"
  4155 ;; Parameters:    Size  Location     Type
  4156 ;;		None
  4157 ;; Auto vars:     Size  Location     Type
  4158 ;;		None
  4159 ;; Return value:  Size  Location     Type
  4160 ;;                  1    wreg      void 
  4161 ;; Registers used:
  4162 ;;		status,2, status,0
  4163 ;; Tracked objects:
  4164 ;;		On entry : 0/0
  4165 ;;		On exit  : 0/0
  4166 ;;		Unchanged: 0/0
  4167 ;; Data sizes:     COMRAM   BANK0   BANK1   BANK2   BANK3   BANK4   BANK5
  4168 ;;      Params:         0       0       0       0       0       0       0
  4169 ;;      Locals:         0       0       0       0       0       0       0
  4170 ;;      Temps:          0       0       0       0       0       0       0
  4171 ;;      Totals:         0       0       0       0       0       0       0
  4172 ;;Total ram usage:        0 bytes
  4173 ;; Hardware stack levels used: 1
  4174 ;; This function calls:
  4175 ;;		Nothing
  4176 ;; This function is called by:
  4177 ;;		_LCD_Write_Cmd
  4178 ;; This function uses a non-reentrant model
  4179 ;;
  4180                           
  4181                           	psect	text53
  4182   000FC6                     __ptext53:
  4183                           	callstack 0
  4184   000FC6                     _LCD_RS_Output_Low:
  4185                           	callstack 27
  4186   000FC6                     
  4187                           ;lcd.c: 54:     LATC&=~(1<<0x02U);
  4188   000FC6  948B               	bcf	139,2,c	;volatile
  4189   000FC8  0012               	return		;funcret
  4190   000FCA                     __end_of_LCD_RS_Output_Low:
  4191                           	callstack 0
  4192                           
  4193 ;; *************** function _LCD_E_Output_Low *****************
  4194 ;; Defined at:
  4195 ;;		line 79 in file "lcd.c"
  4196 ;; Parameters:    Size  Location     Type
  4197 ;;		None
  4198 ;; Auto vars:     Size  Location     Type
  4199 ;;		None
  4200 ;; Return value:  Size  Location     Type
  4201 ;;                  1    wreg      void 
  4202 ;; Registers used:
  4203 ;;		status,2, status,0
  4204 ;; Tracked objects:
  4205 ;;		On entry : 0/0
  4206 ;;		On exit  : 0/0
  4207 ;;		Unchanged: 0/0
  4208 ;; Data sizes:     COMRAM   BANK0   BANK1   BANK2   BANK3   BANK4   BANK5
  4209 ;;      Params:         0       0       0       0       0       0       0
  4210 ;;      Locals:         0       0       0       0       0       0       0
  4211 ;;      Temps:          0       0       0       0       0       0       0
  4212 ;;      Totals:         0       0       0       0       0       0       0
  4213 ;;Total ram usage:        0 bytes
  4214 ;; Hardware stack levels used: 1
  4215 ;; This function calls:
  4216 ;;		Nothing
  4217 ;; This function is called by:
  4218 ;;		_LCD_Write_Cmd
  4219 ;;		_LCD_Write_Data
  4220 ;; This function uses a non-reentrant model
  4221 ;;
  4222                           
  4223                           	psect	text54
  4224   000FCA                     __ptext54:
  4225                           	callstack 0
  4226   000FCA                     _LCD_E_Output_Low:
  4227                           	callstack 28
  4228   000FCA                     
  4229                           ;lcd.c: 80:     LATC&=~(1<<0x07U);
  4230   000FCA  9E8B               	bcf	139,7,c	;volatile
  4231   000FCC  0012               	return		;funcret
  4232   000FCE                     __end_of_LCD_E_Output_Low:
  4233                           	callstack 0
  4234                           
  4235 ;; *************** function _LCD_E_Output_High *****************
  4236 ;; Defined at:
  4237 ;;		line 83 in file "lcd.c"
  4238 ;; Parameters:    Size  Location     Type
  4239 ;;		None
  4240 ;; Auto vars:     Size  Location     Type
  4241 ;;		None
  4242 ;; Return value:  Size  Location     Type
  4243 ;;                  1    wreg      void 
  4244 ;; Registers used:
  4245 ;;		status,2, status,0
  4246 ;; Tracked objects:
  4247 ;;		On entry : 0/0
  4248 ;;		On exit  : 0/0
  4249 ;;		Unchanged: 0/0
  4250 ;; Data sizes:     COMRAM   BANK0   BANK1   BANK2   BANK3   BANK4   BANK5
  4251 ;;      Params:         0       0       0       0       0       0       0
  4252 ;;      Locals:         0       0       0       0       0       0       0
  4253 ;;      Temps:          0       0       0       0       0       0       0
  4254 ;;      Totals:         0       0       0       0       0       0       0
  4255 ;;Total ram usage:        0 bytes
  4256 ;; Hardware stack levels used: 1
  4257 ;; This function calls:
  4258 ;;		Nothing
  4259 ;; This function is called by:
  4260 ;;		_LCD_Write_Cmd
  4261 ;;		_LCD_Write_Data
  4262 ;; This function uses a non-reentrant model
  4263 ;;
  4264                           
  4265                           	psect	text55
  4266   000FCE                     __ptext55:
  4267                           	callstack 0
  4268   000FCE                     _LCD_E_Output_High:
  4269                           	callstack 28
  4270   000FCE                     
  4271                           ;lcd.c: 84:     LATC|=(1<<0x07U);
  4272   000FCE  8E8B               	bsf	139,7,c	;volatile
  4273   000FD0  0012               	return		;funcret
  4274   000FD2                     __end_of_LCD_E_Output_High:
  4275                           	callstack 0
  4276                           
  4277                           	psect	rparam
  4278   000000                     
  4279                           	psect	idloc
  4280                           
  4281                           ;Config register IDLOC0 @ 0x200000
  4282                           ;	unspecified, using default values
  4283   200000                     	org	2097152
  4284   200000  FF                 	db	255
  4285                           
  4286                           ;Config register IDLOC1 @ 0x200001
  4287                           ;	unspecified, using default values
  4288   200001                     	org	2097153
  4289   200001  FF                 	db	255
  4290                           
  4291                           ;Config register IDLOC2 @ 0x200002
  4292                           ;	unspecified, using default values
  4293   200002                     	org	2097154
  4294   200002  FF                 	db	255
  4295                           
  4296                           ;Config register IDLOC3 @ 0x200003
  4297                           ;	unspecified, using default values
  4298   200003                     	org	2097155
  4299   200003  FF                 	db	255
  4300                           
  4301                           ;Config register IDLOC4 @ 0x200004
  4302                           ;	unspecified, using default values
  4303   200004                     	org	2097156
  4304   200004  FF                 	db	255
  4305                           
  4306                           ;Config register IDLOC5 @ 0x200005
  4307                           ;	unspecified, using default values
  4308   200005                     	org	2097157
  4309   200005  FF                 	db	255
  4310                           
  4311                           ;Config register IDLOC6 @ 0x200006
  4312                           ;	unspecified, using default values
  4313   200006                     	org	2097158
  4314   200006  FF                 	db	255
  4315                           
  4316                           ;Config register IDLOC7 @ 0x200007
  4317                           ;	unspecified, using default values
  4318   200007                     	org	2097159
  4319   200007  FF                 	db	255
  4320                           
  4321                           	psect	config
  4322                           
  4323                           ; Padding undefined space
  4324   300000                     	org	3145728
  4325   300000  FF                 	db	255
  4326                           
  4327                           ;Config register CONFIG1H @ 0x300001
  4328                           ;	Oscillator Selection bits
  4329                           ;	FOSC = INTIO67, Internal oscillator block
  4330                           ;	4X PLL Enable
  4331                           ;	PLLCFG = OFF, Oscillator used directly
  4332                           ;	Primary clock enable bit
  4333                           ;	PRICLKEN = ON, Primary clock enabled
  4334                           ;	Fail-Safe Clock Monitor Enable bit
  4335                           ;	FCMEN = OFF, Fail-Safe Clock Monitor disabled
  4336                           ;	Internal/External Oscillator Switchover bit
  4337                           ;	IESO = OFF, Oscillator Switchover mode disabled
  4338   300001                     	org	3145729
  4339   300001  28                 	db	40
  4340                           
  4341                           ;Config register CONFIG2L @ 0x300002
  4342                           ;	Power-up Timer Enable bit
  4343                           ;	PWRTEN = OFF, Power up timer disabled
  4344                           ;	Brown-out Reset Enable bits
  4345                           ;	BOREN = SBORDIS, Brown-out Reset enabled in hardware only (SBOREN is disabled)
  4346                           ;	Brown Out Reset Voltage bits
  4347                           ;	BORV = 190, VBOR set to 1.90 V nominal
  4348   300002                     	org	3145730
  4349   300002  1F                 	db	31
  4350                           
  4351                           ;Config register CONFIG2H @ 0x300003
  4352                           ;	Watchdog Timer Enable bits
  4353                           ;	WDTEN = OFF, Watch dog timer is always disabled. SWDTEN has no effect.
  4354                           ;	Watchdog Timer Postscale Select bits
  4355                           ;	WDTPS = 32768, 1:32768
  4356   300003                     	org	3145731
  4357   300003  3C                 	db	60
  4358                           
  4359                           ; Padding undefined space
  4360   300004                     	org	3145732
  4361   300004  FF                 	db	255
  4362                           
  4363                           ;Config register CONFIG3H @ 0x300005
  4364                           ;	CCP2 MUX bit
  4365                           ;	CCP2MX = PORTC1, CCP2 input/output is multiplexed with RC1
  4366                           ;	PORTB A/D Enable bit
  4367                           ;	PBADEN = ON, PORTB<5:0> pins are configured as analog input channels on Reset
  4368                           ;	P3A/CCP3 Mux bit
  4369                           ;	CCP3MX = PORTB5, P3A/CCP3 input/output is multiplexed with RB5
  4370                           ;	HFINTOSC Fast Start-up
  4371                           ;	HFOFST = ON, HFINTOSC output and ready status are not delayed by the oscillator stable
      +                           status
  4372                           ;	Timer3 Clock input mux bit
  4373                           ;	T3CMX = PORTC0, T3CKI is on RC0
  4374                           ;	ECCP2 B output mux bit
  4375                           ;	P2BMX = PORTB5, P2B is on RB5
  4376                           ;	MCLR Pin Enable bit
  4377                           ;	MCLRE = EXTMCLR, MCLR pin enabled, RE3 input pin disabled
  4378   300005                     	org	3145733
  4379   300005  BF                 	db	191
  4380                           
  4381                           ;Config register CONFIG4L @ 0x300006
  4382                           ;	Stack Full/Underflow Reset Enable bit
  4383                           ;	STVREN = ON, Stack full/underflow will cause Reset
  4384                           ;	Single-Supply ICSP Enable bit
  4385                           ;	LVP = ON, Single-Supply ICSP enabled if MCLRE is also 1
  4386                           ;	Extended Instruction Set Enable bit
  4387                           ;	XINST = OFF, Instruction set extension and Indexed Addressing mode disabled (Legacy mo
      +                          de)
  4388                           ;	Background Debug
  4389                           ;	DEBUG = 0x1, unprogrammed default
  4390   300006                     	org	3145734
  4391   300006  85                 	db	133
  4392                           
  4393                           ; Padding undefined space
  4394   300007                     	org	3145735
  4395   300007  FF                 	db	255
  4396                           
  4397                           ;Config register CONFIG5L @ 0x300008
  4398                           ;	Code Protection Block 0
  4399                           ;	CP0 = OFF, Block 0 (000800-001FFFh) not code-protected
  4400                           ;	Code Protection Block 1
  4401                           ;	CP1 = OFF, Block 1 (002000-003FFFh) not code-protected
  4402                           ;	Code Protection Block 2
  4403                           ;	CP2 = OFF, Block 2 (004000-005FFFh) not code-protected
  4404                           ;	Code Protection Block 3
  4405                           ;	CP3 = OFF, Block 3 (006000-007FFFh) not code-protected
  4406   300008                     	org	3145736
  4407   300008  0F                 	db	15
  4408                           
  4409                           ;Config register CONFIG5H @ 0x300009
  4410                           ;	Boot Block Code Protection bit
  4411                           ;	CPB = OFF, Boot block (000000-0007FFh) not code-protected
  4412                           ;	Data EEPROM Code Protection bit
  4413                           ;	CPD = OFF, Data EEPROM not code-protected
  4414   300009                     	org	3145737
  4415   300009  C0                 	db	192
  4416                           
  4417                           ;Config register CONFIG6L @ 0x30000A
  4418                           ;	Write Protection Block 0
  4419                           ;	WRT0 = OFF, Block 0 (000800-001FFFh) not write-protected
  4420                           ;	Write Protection Block 1
  4421                           ;	WRT1 = OFF, Block 1 (002000-003FFFh) not write-protected
  4422                           ;	Write Protection Block 2
  4423                           ;	WRT2 = OFF, Block 2 (004000-005FFFh) not write-protected
  4424                           ;	Write Protection Block 3
  4425                           ;	WRT3 = OFF, Block 3 (006000-007FFFh) not write-protected
  4426   30000A                     	org	3145738
  4427   30000A  0F                 	db	15
  4428                           
  4429                           ;Config register CONFIG6H @ 0x30000B
  4430                           ;	Configuration Register Write Protection bit
  4431                           ;	WRTC = OFF, Configuration registers (300000-3000FFh) not write-protected
  4432                           ;	Boot Block Write Protection bit
  4433                           ;	WRTB = OFF, Boot Block (000000-0007FFh) not write-protected
  4434                           ;	Data EEPROM Write Protection bit
  4435                           ;	WRTD = OFF, Data EEPROM not write-protected
  4436   30000B                     	org	3145739
  4437   30000B  E0                 	db	224
  4438                           
  4439                           ;Config register CONFIG7L @ 0x30000C
  4440                           ;	Table Read Protection Block 0
  4441                           ;	EBTR0 = OFF, Block 0 (000800-001FFFh) not protected from table reads executed in other
      +                           blocks
  4442                           ;	Table Read Protection Block 1
  4443                           ;	EBTR1 = OFF, Block 1 (002000-003FFFh) not protected from table reads executed in other
      +                           blocks
  4444                           ;	Table Read Protection Block 2
  4445                           ;	EBTR2 = OFF, Block 2 (004000-005FFFh) not protected from table reads executed in other
      +                           blocks
  4446                           ;	Table Read Protection Block 3
  4447                           ;	EBTR3 = OFF, Block 3 (006000-007FFFh) not protected from table reads executed in other
      +                           blocks
  4448   30000C                     	org	3145740
  4449   30000C  0F                 	db	15
  4450                           
  4451                           ;Config register CONFIG7H @ 0x30000D
  4452                           ;	Boot Block Table Read Protection bit
  4453                           ;	EBTRB = OFF, Boot Block (000000-0007FFh) not protected from table reads executed in ot
      +                          her blocks
  4454   30000D                     	org	3145741
  4455   30000D  40                 	db	64
  4456                           tosu	equ	0xFFF
  4457                           tosh	equ	0xFFE
  4458                           tosl	equ	0xFFD
  4459                           stkptr	equ	0xFFC
  4460                           pclatu	equ	0xFFB
  4461                           pclath	equ	0xFFA
  4462                           pcl	equ	0xFF9
  4463                           tblptru	equ	0xFF8
  4464                           tblptrh	equ	0xFF7
  4465                           tblptrl	equ	0xFF6
  4466                           tablat	equ	0xFF5
  4467                           prodh	equ	0xFF4
  4468                           prodl	equ	0xFF3
  4469                           indf0	equ	0xFEF
  4470                           postinc0	equ	0xFEE
  4471                           postdec0	equ	0xFED
  4472                           preinc0	equ	0xFEC
  4473                           plusw0	equ	0xFEB
  4474                           fsr0h	equ	0xFEA
  4475                           fsr0l	equ	0xFE9
  4476                           wreg	equ	0xFE8
  4477                           indf1	equ	0xFE7
  4478                           postinc1	equ	0xFE6
  4479                           postdec1	equ	0xFE5
  4480                           preinc1	equ	0xFE4
  4481                           plusw1	equ	0xFE3
  4482                           fsr1h	equ	0xFE2
  4483                           fsr1l	equ	0xFE1
  4484                           bsr	equ	0xFE0
  4485                           indf2	equ	0xFDF
  4486                           postinc2	equ	0xFDE
  4487                           postdec2	equ	0xFDD
  4488                           preinc2	equ	0xFDC
  4489                           plusw2	equ	0xFDB
  4490                           fsr2h	equ	0xFDA
  4491                           fsr2l	equ	0xFD9
  4492                           status	equ	0xFD8

Data Sizes:
    Strings     22
    Constant    0
    Data        0
    BSS         0
    Persistent  0
    Stack       0

Auto Spaces:
    Space          Size  Autos    Used
    COMRAM           95     64      64
    BANK0           160      0       0
    BANK1           256      0       0
    BANK2           256      0       0
    BANK3           256      0       0
    BANK4           256      0       0
    BANK5           256      0       0

Pointer List with Targets:

    LCD_Write_String@str	PTR unsigned char  size(2) Largest target is 11
		 -> STR_2(CODE[11]), STR_1(CODE[11]), 

    MFRC522_Request@TagType	PTR unsigned char  size(2) Largest target is 16
		 -> MFRC522_Detect_Tag@info(COMRAM[16]), 

    MFRC522_Anticoll@serNum	PTR unsigned char  size(2) Largest target is 16
		 -> MFRC522_Detect_Tag@info(COMRAM[16]), 

    MFRC522_ToCard@backData	PTR unsigned char  size(2) Largest target is 16
		 -> MFRC522_Detect_Tag@info(COMRAM[16]), 

    MFRC522_ToCard@backLen	PTR unsigned char  size(2) Largest target is 1
		 -> MFRC522_Request@backBits(COMRAM[1]), MFRC522_Anticoll@unLen(COMRAM[1]), 

    MFRC522_ToCard@sendData	PTR unsigned char  size(2) Largest target is 16
		 -> MFRC522_Detect_Tag@info(COMRAM[16]), 

    SPI_Transfer@data	PTR unsigned char  size(2) Largest target is 2
		 -> MFRC522_Read_Register@data(COMRAM[2]), MFRC522_Write_Register@data(COMRAM[2]), 


Critical Paths under _main in COMRAM

    _main->_MFRC522_Detect_Tag
    _MFRC522_Init->_MFRC522_Antenna_On
    _MFRC522_Reset->_MFRC522_Write_Register
    _MFRC522_Antenna_On->_MFRC522_Modify_Register_Bit
    _MFRC522_Detect_Tag->_MFRC522_Anticoll
    _MFRC522_Request->_MFRC522_ToCard
    _MFRC522_Anticoll->_MFRC522_ToCard
    _MFRC522_ToCard->_MFRC522_Modify_Register_Bit
    _MFRC522_Modify_Register_Bit->_MFRC522_Write_Register
    _MFRC522_Write_Register->_SPI_Transfer
    _MFRC522_Read_Register->_SPI_Transfer
    _SPI_Transfer->_SPI_Transfer_Byte_MSB_First
    _LCD_Write_String->_LCD_Write_Data
    _LCD_Write_Data->_LCD_Write_Nibble_To_Data_Pins
    _LCD_Init->_LCD_Registers_Init
    _LCD_Registers_Init->_LCD_Write_Cmd
    _LCD_Clear->_LCD_Write_Cmd
    _LCD_Write_Cmd->_LCD_Write_Nibble_To_Data_Pins

Critical Paths under _main in BANK0

    None.

Critical Paths under _main in BANK1

    None.

Critical Paths under _main in BANK2

    None.

Critical Paths under _main in BANK3

    None.

Critical Paths under _main in BANK4

    None.

Critical Paths under _main in BANK5

    None.

Call Graph Tables:

 ---------------------------------------------------------------------------------
 (Depth) Function   	        Calls       Base Space   Used Autos Params    Refs
 ---------------------------------------------------------------------------------
 (0) _main                                                 3     3      0   26684
                                             61 COMRAM     3     3      0
                          _LCD_Clear
                           _LCD_Init
                   _LCD_Write_String
                 _MFRC522_Detect_Tag
                       _MFRC522_Init
 ---------------------------------------------------------------------------------
 (1) _MFRC522_Init                                         0     0      0    7629
                 _MFRC522_Antenna_On
                      _MFRC522_Reset
             _MFRC522_Write_Register
                           _SPI_Init
 ---------------------------------------------------------------------------------
 (2) _SPI_Init                                             0     0      0       0
                      _SPI_GPIO_Init
                     _SPI_Timer_Init
 ---------------------------------------------------------------------------------
 (3) _SPI_Timer_Init                                       0     0      0       0
 ---------------------------------------------------------------------------------
 (3) _SPI_GPIO_Init                                        0     0      0       0
                      _SPI_CS_Output
                 _SPI_CS_Output_High
                     _SPI_MISO_Input
                    _SPI_MOSI_Output
                _SPI_MOSI_Output_Low
                     _SPI_SCK_Output
                 _SPI_SCK_Output_Low
 ---------------------------------------------------------------------------------
 (4) _SPI_SCK_Output                                       0     0      0       0
 ---------------------------------------------------------------------------------
 (4) _SPI_MOSI_Output                                      0     0      0       0
 ---------------------------------------------------------------------------------
 (4) _SPI_MISO_Input                                       0     0      0       0
 ---------------------------------------------------------------------------------
 (4) _SPI_CS_Output                                        0     0      0       0
 ---------------------------------------------------------------------------------
 (2) _MFRC522_Reset                                        0     0      0    1671
             _MFRC522_Write_Register
 ---------------------------------------------------------------------------------
 (2) _MFRC522_Antenna_On                                   2     2      0    4287
                                             20 COMRAM     2     2      0
        _MFRC522_Modify_Register_Bit
              _MFRC522_Read_Register
 ---------------------------------------------------------------------------------
 (1) _MFRC522_Detect_Tag                                  17    17      0   18475
                                             44 COMRAM    17    17      0
                   _MFRC522_Anticoll
                    _MFRC522_Request
 ---------------------------------------------------------------------------------
 (2) _MFRC522_Request                                      5     3      2    9130
                                             37 COMRAM     5     3      2
                     _MFRC522_ToCard
             _MFRC522_Write_Register
 ---------------------------------------------------------------------------------
 (2) _MFRC522_Anticoll                                     7     5      2    9266
                                             37 COMRAM     7     5      2
                     _MFRC522_ToCard
             _MFRC522_Write_Register
 ---------------------------------------------------------------------------------
 (3) _MFRC522_ToCard                                      17    10      7    7201
                                             20 COMRAM    17    10      7
        _MFRC522_Modify_Register_Bit
              _MFRC522_Read_Register
             _MFRC522_Write_Register
 ---------------------------------------------------------------------------------
 (3) _MFRC522_Modify_Register_Bit                          6     4      2    3654
                                             14 COMRAM     6     4      2
              _MFRC522_Read_Register
             _MFRC522_Write_Register
 ---------------------------------------------------------------------------------
 (2) _MFRC522_Write_Register                               4     3      1    1671
                                             10 COMRAM     4     3      1
                       _SPI_Transfer
 ---------------------------------------------------------------------------------
 (3) _MFRC522_Read_Register                                3     3      0     609
                                             10 COMRAM     3     3      0
                       _SPI_Transfer
 ---------------------------------------------------------------------------------
 (3) _SPI_Transfer                                         4     1      3     513
                                              6 COMRAM     4     1      3
                 _SPI_CS_Output_High
                  _SPI_CS_Output_Low
        _SPI_Transfer_Byte_MSB_First
 ---------------------------------------------------------------------------------
 (4) _SPI_Transfer_Byte_MSB_First                          6     6      0      75
                                              0 COMRAM     6     6      0
                     _SPI_MISO_State
               _SPI_MOSI_Output_High
                _SPI_MOSI_Output_Low
                _SPI_SCK_Output_High
                 _SPI_SCK_Output_Low
       _SPI_Timer_Wait_Half_Bit_Time
        _SPI_Timer_Wait_One_Bit_Time
 ---------------------------------------------------------------------------------
 (5) _SPI_Timer_Wait_One_Bit_Time                          0     0      0       0
 ---------------------------------------------------------------------------------
 (5) _SPI_Timer_Wait_Half_Bit_Time                         0     0      0       0
 ---------------------------------------------------------------------------------
 (4) _SPI_SCK_Output_Low                                   0     0      0       0
 ---------------------------------------------------------------------------------
 (5) _SPI_SCK_Output_High                                  0     0      0       0
 ---------------------------------------------------------------------------------
 (4) _SPI_MOSI_Output_Low                                  0     0      0       0
 ---------------------------------------------------------------------------------
 (5) _SPI_MOSI_Output_High                                 0     0      0       0
 ---------------------------------------------------------------------------------
 (5) _SPI_MISO_State                                       0     0      0       0
 ---------------------------------------------------------------------------------
 (4) _SPI_CS_Output_Low                                    0     0      0       0
 ---------------------------------------------------------------------------------
 (4) _SPI_CS_Output_High                                   0     0      0       0
 ---------------------------------------------------------------------------------
 (1) _LCD_Write_String                                     3     1      2     287
                                              3 COMRAM     3     1      2
                     _LCD_Write_Data
 ---------------------------------------------------------------------------------
 (2) _LCD_Write_Data                                       2     2      0      90
                                              1 COMRAM     2     2      0
                  _LCD_E_Output_High
                   _LCD_E_Output_Low
                 _LCD_RS_Output_High
      _LCD_Write_Nibble_To_Data_Pins
 ---------------------------------------------------------------------------------
 (3) _LCD_RS_Output_High                                   0     0      0       0
 ---------------------------------------------------------------------------------
 (1) _LCD_Init                                             2     2      0     180
                                              5 COMRAM     2     2      0
                          _LCD_Clear
                      _LCD_GPIO_Init
                 _LCD_Registers_Init
 ---------------------------------------------------------------------------------
 (2) _LCD_Registers_Init                                   2     2      0      90
                                              3 COMRAM     2     2      0
                      _LCD_Write_Cmd
 ---------------------------------------------------------------------------------
 (2) _LCD_GPIO_Init                                        0     0      0       0
                      _LCD_D4_Output
                      _LCD_D5_Output
                      _LCD_D6_Output
                      _LCD_D7_Output
                       _LCD_E_Output
                      _LCD_RS_Output
                      _LCD_RW_Output
 ---------------------------------------------------------------------------------
 (3) _LCD_RW_Output                                        0     0      0       0
 ---------------------------------------------------------------------------------
 (3) _LCD_RS_Output                                        0     0      0       0
 ---------------------------------------------------------------------------------
 (3) _LCD_E_Output                                         0     0      0       0
 ---------------------------------------------------------------------------------
 (3) _LCD_D7_Output                                        0     0      0       0
 ---------------------------------------------------------------------------------
 (3) _LCD_D6_Output                                        0     0      0       0
 ---------------------------------------------------------------------------------
 (3) _LCD_D5_Output                                        0     0      0       0
 ---------------------------------------------------------------------------------
 (3) _LCD_D4_Output                                        0     0      0       0
 ---------------------------------------------------------------------------------
 (2) _LCD_Clear                                            1     1      0      90
                                              3 COMRAM     1     1      0
                      _LCD_Write_Cmd
 ---------------------------------------------------------------------------------
 (3) _LCD_Write_Cmd                                        2     2      0      90
                                              1 COMRAM     2     2      0
                  _LCD_E_Output_High
                   _LCD_E_Output_Low
                  _LCD_RS_Output_Low
      _LCD_Write_Nibble_To_Data_Pins
 ---------------------------------------------------------------------------------
 (3) _LCD_Write_Nibble_To_Data_Pins                        1     1      0      60
                                              0 COMRAM     1     1      0
                 _LCD_D4_Output_High
                  _LCD_D4_Output_Low
                 _LCD_D5_Output_High
                  _LCD_D5_Output_Low
                 _LCD_D6_Output_High
                  _LCD_D6_Output_Low
                 _LCD_D7_Output_High
                  _LCD_D7_Output_Low
 ---------------------------------------------------------------------------------
 (4) _LCD_D7_Output_Low                                    0     0      0       0
 ---------------------------------------------------------------------------------
 (4) _LCD_D7_Output_High                                   0     0      0       0
 ---------------------------------------------------------------------------------
 (4) _LCD_D6_Output_Low                                    0     0      0       0
 ---------------------------------------------------------------------------------
 (4) _LCD_D6_Output_High                                   0     0      0       0
 ---------------------------------------------------------------------------------
 (4) _LCD_D5_Output_Low                                    0     0      0       0
 ---------------------------------------------------------------------------------
 (4) _LCD_D5_Output_High                                   0     0      0       0
 ---------------------------------------------------------------------------------
 (4) _LCD_D4_Output_Low                                    0     0      0       0
 ---------------------------------------------------------------------------------
 (4) _LCD_D4_Output_High                                   0     0      0       0
 ---------------------------------------------------------------------------------
 (4) _LCD_RS_Output_Low                                    0     0      0       0
 ---------------------------------------------------------------------------------
 (3) _LCD_E_Output_Low                                     0     0      0       0
 ---------------------------------------------------------------------------------
 (3) _LCD_E_Output_High                                    0     0      0       0
 ---------------------------------------------------------------------------------
 Estimated maximum stack depth 5
 ---------------------------------------------------------------------------------

 Call Graph Graphs:

 _main (ROOT)
   _LCD_Clear
     _LCD_Write_Cmd
       _LCD_E_Output_High
       _LCD_E_Output_Low
       _LCD_RS_Output_Low
       _LCD_Write_Nibble_To_Data_Pins
         _LCD_D4_Output_High
         _LCD_D4_Output_Low
         _LCD_D5_Output_High
         _LCD_D5_Output_Low
         _LCD_D6_Output_High
         _LCD_D6_Output_Low
         _LCD_D7_Output_High
         _LCD_D7_Output_Low
   _LCD_Init
     _LCD_Clear
     _LCD_GPIO_Init
       _LCD_D4_Output
       _LCD_D5_Output
       _LCD_D6_Output
       _LCD_D7_Output
       _LCD_E_Output
       _LCD_RS_Output
       _LCD_RW_Output
     _LCD_Registers_Init
       _LCD_Write_Cmd
   _LCD_Write_String
     _LCD_Write_Data
       _LCD_E_Output_High
       _LCD_E_Output_Low
       _LCD_RS_Output_High
       _LCD_Write_Nibble_To_Data_Pins
   _MFRC522_Detect_Tag
     _MFRC522_Anticoll
       _MFRC522_ToCard
         _MFRC522_Modify_Register_Bit
           _MFRC522_Read_Register
             _SPI_Transfer
               _SPI_CS_Output_High
               _SPI_CS_Output_Low
               _SPI_Transfer_Byte_MSB_First
                 _SPI_MISO_State
                 _SPI_MOSI_Output_High
                 _SPI_MOSI_Output_Low
                 _SPI_SCK_Output_High
                 _SPI_SCK_Output_Low
                 _SPI_Timer_Wait_Half_Bit_Time
                 _SPI_Timer_Wait_One_Bit_Time
           _MFRC522_Write_Register
             _SPI_Transfer
         _MFRC522_Read_Register
         _MFRC522_Write_Register
       _MFRC522_Write_Register
     _MFRC522_Request
       _MFRC522_ToCard
       _MFRC522_Write_Register
   _MFRC522_Init
     _MFRC522_Antenna_On
       _MFRC522_Modify_Register_Bit
       _MFRC522_Read_Register
     _MFRC522_Reset
       _MFRC522_Write_Register
     _MFRC522_Write_Register
     _SPI_Init
       _SPI_GPIO_Init
         _SPI_CS_Output
         _SPI_CS_Output_High
         _SPI_MISO_Input
         _SPI_MOSI_Output
         _SPI_MOSI_Output_Low
         _SPI_SCK_Output
         _SPI_SCK_Output_Low
       _SPI_Timer_Init

 Address spaces:
Name               Size   Autos  Total    Cost      Usage
BITCOMRAM           5F      0       0       0        0.0%
EEDATA             100      0       0       0        0.0%
NULL                 0      0       0       0        0.0%
CODE                 0      0       0       0        0.0%
COMRAM              5F     40      40       1       67.4%
STACK                0      0       0       2        0.0%
BITBANK0            A0      0       0       3        0.0%
BANK0               A0      0       0       4        0.0%
BITBANK1           100      0       0       5        0.0%
BANK1              100      0       0       6        0.0%
BITBANK2           100      0       0       7        0.0%
BANK2              100      0       0       8        0.0%
BITBANK3           100      0       0       9        0.0%
BANK3              100      0       0      10        0.0%
BITBANK4           100      0       0      11        0.0%
BANK4              100      0       0      12        0.0%
BITBANK5           100      0       0      13        0.0%
BANK5              100      0       0      14        0.0%
BITBIGSFRhh         28      0       0      15        0.0%
BITBIGSFRhl         40      0       0      16        0.0%
BITBIGSFRlhh         7      0       0      17        0.0%
BITBIGSFRlhlh        7      0       0      18        0.0%
BITBIGSFRlhll       47      0       0      19        0.0%
BITBIGSFRll          1      0       0      20        0.0%
ABS                  0      0       0      21        0.0%
BIGRAM             5FF      0       0      22        0.0%
DATA                 0      0       0      23        0.0%
BIGSFR               0      0       0     200        0.0%
BITSFR_1             0      0       0     200        0.0%
SFR_1                0      0       0     200        0.0%
BITSFR               0      0       0     200        0.0%
SFR                  0      0       0     200        0.0%


Microchip Technology PIC18 Macro Assembler V2.40 build 20220703182018 
Symbol Table                                                                                   Mon May 01 22:55:43 2023

                                   l43 0F32                                     l52 0F42  
                                   l60 0F3A                                     l46 0F8C  
                                   l63 0F94                                     l72 0F9C  
                                   l56 0F0A                                     l49 0F90  
                                   l81 0F88                                     l66 0F98  
                                   l75 0FA0                                     l93 0E9A  
                                   l69 0F4A                                     l78 0EB8  
                                   l87 0E7A                                     u10 0F02  
                                   u11 0EFE                                     u20 0E7A  
                                   u21 0E76                                     u30 0E9A  
                                   u31 0E96                                     u50 0A92  
                                   u51 0A8E                                     u60 0ACC  
                                   u44 0A7E                                     u61 0AC8  
                                   u45 0A7A                                    l100 0ADA  
                                  l113 0CB0                                    l211 0FC8  
                                  l123 0E5A                                    l300 0A54  
                                  l132 0B4E                                    l116 0F2A  
                                  l214 0FA4                                    l126 0E3A  
                                  l142 0F16                                    l303 0E16  
                                  l232 0FD0                                    l208 0F5A  
                                  l136 0DB8                                    l241 0FC4  
                                  l217 0F52                                    l250 0FBC  
                                  l226 0F62                                    l170 087C  
                                  l235 0F82                                    l244 0F7A  
                                  l180 0C1E                                    l229 0FCC  
                                  l253 0F72                                    l165 082E  
                                  l173 0924                                    l238 0FC0  
                                  l262 0F6A                                    l158 087A  
                                  l247 0FB8                                    l183 0C20  
                                  l191 0C6A                                    l256 0FB0  
                                  l265 0FA8                                    l177 0926  
                                  l282 0D7C                                    l259 0FB4  
                                  l291 0CF4                                    l187 0DF0  
                                  l268 0FAC                                    l285 0D38  
                                  l294 0EF2                                    l279 0BBA  
                                  l297 0ED6                                    l981 0F8E  
                                  l991 0F08                                    l983 0EF4  
                                  l985 0F02                                    l995 0F92  
                                  l979 0F8A                                    l997 0F96  
                                  l999 0E5C                                    u120 0B60  
                                  u121 0B5C                                    u130 0B7A  
                                  u131 0B76                                    u140 0B94  
                                  u141 0B90                                    u150 0BAE  
                                  u151 0BAA                                    u420 0CAC  
                                  u500 0740                                    u421 0CA8  
                                  u501 073C                                    u430 0AF6  
                                  u510 0754                                    u431 0AF2  
                                  u511 0750                                    u520 0774  
                                  u600 0D9C                                    u521 0770  
                                  u601 0D98                                    u450 0B26  
                                  u530 078E                                    u610 08DC  
                                  u451 0B22                                    u531 078A  
                                  u611 08D8                                    u444 0B08  
                                  u540 07A6                                    u620 0902  
                                  u445 0B04                                    u541 07A2  
                                  u621 08FE                                    u550 07BC  
                                  u470 06E0                                    u630 0920  
                                  u551 07B8                                    u471 06DC  
                                  u631 091C                                    u464 0B38  
                                  u560 07DE                                    u480 06FC  
                                  u640 0C08                                    u465 0B34  
                                  u561 07DA                                    u481 06F8  
                                  u641 0C04                                    u570 0816  
                                  u490 0732                                    u650 0C1A  
                                  u571 0812                                    u491 072E  
                                  u651 0C16                                    u707 0984  
                                  u660 0CF4                                    u580 082A  
                                  u661 0CF0                                    u581 0826  
                                  u717 099A                                    u590 0872  
                                  u670 0DE8                                    u807 0A10  
                                  u591 086E                                    u671 0DE4  
                                  u727 09B4                                    u680 096A  
                                  u817 0A24                                    u737 0CD0  
                                  u681 0966                                    u827 0A38  
                                  u747 0D0E                                    u837 0A4C  
                                  u757 0D2C                         ?_LCD_RS_Output 0001  
                                  u847 0EEA                                    u767 0DFC  
                                  u857 0D52                                    u777 09CE  
                                  u697 093A                                    u867 0D70  
                                  u787 09E8                                    u797 09FC  
                         _SPI_Transfer 0C6C                        ??_LCD_D4_Output 0001  
                      ??_LCD_D5_Output 0001                     _SPI_SCK_Output_Low 0F8A  
                      ??_LCD_D6_Output 0001           ?_SPI_Timer_Wait_One_Bit_Time 0001  
                                  wreg 000FE8                        ??_LCD_D7_Output 0001  
                       ?_LCD_RW_Output 0001                         ??_MFRC522_Init 0017  
                                 l1001 0E64                                   l1003 0E7C  
                                 l1011 0A58                                   l1005 0E84  
                                 l1013 0A5C                                   l1101 0F34  
                                 l1007 0F9A                                   l1031 0AA2  
                                 l1023 0A6C                                   l1015 0A60  
                                 l1103 0F44                                   l1121 0FCA  
                                 l1009 0F9E                                   l1041 0ABE  
                                 l1033 0AA6                                   l1025 0A92  
                                 l1017 0A64                                   l1123 0FCE  
                                 l1131 0B6C                                   l1043 0ACC  
                                 l1035 0AAA                                   l1027 0A9A  
                                 l1141 0B9C                                   l1133 0B7A  
                                 l1125 0B52                                   l1045 0AD0  
                                 l1037 0AB0                                   l1029 0A9E  
                                 l1119 0FC6                                   l1143 0BA0  
                                 l1135 0B82                                   l1127 0B60  
                                 l1047 0AD4                                   l1039 0AB4  
                                 l1151 0F84                                   l1081 0FBE  
                                 l1145 0BAE                                   l1137 0B86  
                                 l1129 0B68                                   l1241 0F5C  
                                 l1049 0AD8                                   l1083 0FC2  
                                 l1091 0FB2                                   l1147 0BB6  
                                 l1139 0B94                                   l1251 0D3C  
                                 l1243 0F7C                                   l1235 0F54  
                                 l1331 0D04                                   l1085 0FB6  
                                 l1093 0FA6                                   l1261 0D66  
                                 l1253 0D40                                   l1245 0F74  
                                 l1341 0EBA                                   l1237 0FA2  
                                 l1333 0D08                                   l1501 0CAC  
                                 l1149 0E9C                                   l1087 0FBA  
                                 l1095 0FAA                                   l1263 0D6A  
                                 l1255 0D48                                   l1247 0F6C  
                                 l1239 0F4C                                   l1351 0A04  
                                 l1343 09C4                                   l1335 0D1A  
                                 l1327 0CF8                                   l1511 0E24  
                                 l1503 0E3E                                   l1271 0F26  
                                 l1089 0FAE                                   l1257 0D4C  
                                 l1265 0ED8                                   l1249 0F64  
                                 l1353 0A18                                   l1345 09DC  
                                 l1337 0D22                                   l1329 0CFC  
                                 l1513 0E28                                   l1505 0E46  
                                 l1521 0ADE                                   l1601 083A  
                                 l1097 0F2C                                   l1259 0D5E  
                                 l1267 0EE4                                   l1355 0A1E  
                                 l1347 09E2                                   l1339 0D26  
                                 l1515 0E38                                   l1507 0E4A  
                                 l1531 0B44                                   l1523 0AE6  
                                 l1603 0852                                   l1099 0F3C  
                                 l1357 0A32                                   l1349 09F6  
                                 l1381 0E0A                                   l1509 0E1A  
                                 l1525 0AF6                                   l1605 0856  
                                 l1541 0642                                   l1533 061A  
                                 l1701 0DE8                                   l1621 0D9C  
                                 l1269 0F22                                   l1359 0A40  
                                 l1527 0B16                                   l1519 0ADE  
                                 l1607 0876                                   l1551 06C4  
                                 l1543 066C                                   l1535 062A  
                                 l1631 0898                                   l1615 0D7E  
                                 l1623 0F0C                                   l1711 0928  
                                 l1529 0B26                                   l1561 0712  
                                 l1553 06E0                                   l1545 069E  
                                 l1537 0636                                   l1633 08A8  
                                 l1625 087E                                   l1617 0D7E  
                                 l1721 095A                                   l1713 092C  
                                 l1379 0DF2                                   l1491 0C6C  
                                 l1571 0754                                   l1563 071A  
                                 l1555 06EA                                   l1547 06AA  
                                 l1651 0920                                   l1643 08E0  
                                 l1635 08CC                                   l1627 0882  
                                 l1707 0DEE                                   l1619 0D86  
                                 l1723 096A                                   l1731 09AA  
                                 l1715 0930                                   l1493 0C70  
                                 l1581 07A6                                   l1573 0762  
                                 l1565 0720                                   l1557 06FC  
                                 l1549 06C0                                   l1645 08F0  
                                 l1637 08DC                                   l1629 088C  
                                 l1661 0BF8                                   l1733 09AE  
                                 l1725 096E                                   l1717 0948  
                                 l1495 0C78                                   l1591 07F6  
                                 l1583 07AA                                   l1575 0774  
                                 l1567 0732                                   l1559 070A  
                                 l1647 08F2                                   l1663 0C08  
                                 l1655 0BBE                                   l1671 0C26  
                                 l1727 097A                                   l1719 0954  
                                 l1497 0C98                                   l1593 0806  
                                 l1585 07BC                                   l1577 078E  
                                 l1569 0740                                   l1649 0902  
                                 l1665 0C1A                                   l1657 0BC8  
                                 l1681 0C52                                   l1673 0C2A  
                                 l1729 0990                                   l1691 0CC6  
                                 l1499 0C9A                                   l1595 0816  
                                 l1587 07CE                                   l1579 0792  
                                 l1659 0BD4                                   l1683 0C5C  
                                 l1675 0C34                    LCD_Write_String@str 0004  
                                 l1693 0CCA                                   l1597 081A  
                                 l1589 07DE                                   l1757 0656  
                                 l1685 0C66                                   l1677 0C3E  
                                 l1669 0C22                                   l1695 0CD8  
                                 l1687 0CB2                                   l1599 082A  
                                 l1679 0C48                                   l1689 0CB6  
                                 l1697 0DBA                                   l1699 0DD8  
                                 STR_1 060C                                   STR_2 0601  
                  ?_SPI_SCK_Output_Low 0001                                   _LATB 000F8A  
                                 _LATC 000F8B                                   _TMR0 000FD6  
                    ?_LCD_Write_String 0004                                   _main 0928  
                                 fsr2h 000FDA                                   indf1 000FE7  
                                 indf2 000FDF                                   fsr1l 000FE1  
                                 fsr2l 000FD9                    _SPI_SCK_Output_High 0F8E  
                                 prodl 000FF3                                   start 0000  
                   ??_LCD_Write_String 0006                        ??_SPI_GPIO_Init 0001  
                       ??_LCD_E_Output 0001                        ??_LCD_GPIO_Init 0001  
               MFRC522_Detect_Tag@info 002D                       _MFRC522_Anticoll 087E  
                        _LCD_Write_Cmd 0D3A                           ___param_bank 000000  
                       _SPI_Timer_Init 0F84                        ??_MFRC522_Reset 000F  
                 ??_SPI_SCK_Output_Low 0001                       __end_of_LCD_Init 0E18  
                      ??_SPI_CS_Output 0001                                  ?_main 0001  
                 ?_SPI_SCK_Output_High 0001     MFRC522_Modify_Register_Bit@bit_pos 000F  
                                _T0CON 000FD5                                  _PORTC 000F82  
                                _TRISB 000F93                                  _TRISC 000F94  
                 MFRC522_ToCard@status 001F          ??_SPI_Timer_Wait_One_Bit_Time 0001  
                     __end_of_SPI_Init 0F2C                                  tablat 000FF5  
                                status 000FD8                 __end_of_SPI_Timer_Init 0F8A  
                       ?_LCD_Write_Cmd 0001                         _LCD_Write_Data 0CF6  
                      __initialization 0F18                           __end_of_main 09C4  
         ?_SPI_Transfer_Byte_MSB_First 0001                       ??_MFRC522_ToCard 001C  
                      ??_LCD_RS_Output 0001                  ??_SPI_SCK_Output_High 0001  
                MFRC522_Request@status 0029                                 ??_main 003E  
                    __end_of_LCD_Clear 0EF4                 _MFRC522_Write_Register 0E3C  
        __end_of_MFRC522_Read_Register 0E3C                          __activetblptr 000002  
                      ??_LCD_RW_Output 0001                        MFRC522_ToCard@i 0023  
                      MFRC522_ToCard@n 0025                  MFRC522_ToCard@backLen 001A  
                     ??_SPI_MISO_Input 0001                       ??_SPI_MISO_State 0001  
                MFRC522_ToCard@command 0022                                 _ANSELB 000F39  
                               _ANSELC 000F3A            MFRC522_Anticoll@serNumCheck 0029  
                MFRC522_ToCard@sendLen 0017                  MFRC522_ToCard@waitIRq 001E  
               __end_of_LCD_Write_Data 0D3A                       ??_SPI_SCK_Output 0001  
                      ?_SPI_Timer_Init 0001                   __end_of_MFRC522_Init 0C6C  
         ?_MFRC522_Modify_Register_Bit 000F                                 isa$std 000001  
        ??_SPI_Transfer_Byte_MSB_First 0001                       LCD_Write_Cmd@val 0003  
          __end_of_SPI_MOSI_Output_Low 0F96                           __mediumconst 0000  
                 __end_of_LCD_E_Output 0F64                                 tblptrh 000FF7  
                               tblptrl 000FF6                                 tblptru 000FF8  
                   _MFRC522_Detect_Tag 0DBA                             __accesstop 0060  
              __end_of__initialization 0F18                              ?_LCD_Init 0001  
                      ??_LCD_Write_Cmd 0002                          ___rparam_used 000001  
               MFRC522_Request@TagType 0026                    ?_MFRC522_Detect_Tag 0001  
                      ?_LCD_Write_Data 0001                     _MFRC522_Antenna_On 0D7E  
             MFRC522_Detect_Tag@status 003D                         __pcstackCOMRAM 0001  
                  ?_MFRC522_Antenna_On 0001                              ?_SPI_Init 0001  
        ??_MFRC522_Modify_Register_Bit 0011                   ??_MFRC522_Detect_Tag 002D  
               MFRC522_Request@reqMode 0028               __end_of_MFRC522_Anticoll 0928  
                    ??_MFRC522_Request 0028                   ??_MFRC522_Antenna_On 0015  
                           ??_LCD_Init 0006                 MFRC522_ToCard@backData 0018  
           __end_of_LCD_Registers_Init 0A56                  MFRC522_Anticoll@unLen 002A  
                    _SPI_CS_Output_Low 0F9A              MFRC522_Write_Register@val 000B  
                   ?_SPI_CS_Output_Low 0001                             ??_SPI_Init 0001  
               MFRC522_ToCard@lastBits 0020                    ??_SPI_CS_Output_Low 0001  
        ?_SPI_Timer_Wait_Half_Bit_Time 0001                 MFRC522_ToCard@sendData 0015  
           __end_of_SPI_CS_Output_High 0FA2                  __end_of_LCD_D4_Output 0F84  
                    _LCD_RS_Output_Low 0FC6                          SPI_Transfer@i 000A  
                __end_of_LCD_D5_Output 0F7C                      _LCD_D4_Output_Low 0FBE  
      MFRC522_Modify_Register_Bit@addr 0013                  __end_of_LCD_D6_Output 0F74  
      MFRC522_Modify_Register_Bit@data 0014                      ??_SPI_MOSI_Output 0001  
                __end_of_LCD_D7_Output 0F6C                     ?_LCD_RS_Output_Low 0001  
                   ?_LCD_D4_Output_Low 0001       LCD_Write_Nibble_To_Data_Pins@val 0001  
            __end_of_SPI_CS_Output_Low 0F9E                    ??_LCD_RS_Output_Low 0001  
                  ??_LCD_D4_Output_Low 0001                                __Hparam 0000  
                              __Lparam 0000                  __end_of_SPI_GPIO_Init 0EBA  
                __end_of_LCD_GPIO_Init 0ED8                      _LCD_D5_Output_Low 0FB6  
                   ?_LCD_D5_Output_Low 0001                           __psmallconst 0600  
              ?_MFRC522_Write_Register 000B                                __pcinit 0F18  
                __end_of_MFRC522_Reset 0F18                                __ramtop 0600  
                              __ptext0 0928                                __ptext1 0C22  
                              __ptext2 0F22                                __ptext3 0F84  
                              __ptext4 0E9C                                __ptext5 0F2C  
                              __ptext6 0F34                                __ptext7 0F3C  
                              __ptext8 0F44                                __ptext9 0F0C  
            __end_of_LCD_RS_Output_Low 0FCA                  __end_of_SPI_CS_Output 0F4C  
                  ??_LCD_D5_Output_Low 0001              __end_of_LCD_D4_Output_Low 0FC2  
                            _LCD_Clear 0ED8                      _LCD_D6_Output_Low 0FAE  
           __end_of_LCD_RS_Output_High 0FA6             __end_of_LCD_D4_Output_High 0FC6  
                         _MFRC522_Init 0C22                   end_of_initialization 0F18  
                   ?_LCD_D6_Output_Low 0001                       ??_SPI_Timer_Init 0001  
                        __Lmediumconst 0000                      LCD_Write_Data@val 0003  
                  ??_LCD_D6_Output_Low 0001           __end_of_SPI_MOSI_Output_High 0F9A  
            __end_of_LCD_D5_Output_Low 0FBA                        SPI_Transfer@len 0009  
                     _LCD_E_Output_Low 0FCA                           _LCD_E_Output 0F5C  
          __end_of_SPI_SCK_Output_High 0F92                      _LCD_D7_Output_Low 0FA6  
       __end_of_MFRC522_Write_Register 0E5C                                postinc2 000FDE  
                   ?_LCD_D7_Output_Low 0001        ??_LCD_Write_Nibble_To_Data_Pins 0001  
                __end_of_LCD_RS_Output 0F5C    __end_of_SPI_Timer_Wait_One_Bit_Time 0E7C  
          _SPI_Timer_Wait_One_Bit_Time 0E5C                    ??_LCD_D7_Output_Low 0001  
            __end_of_LCD_D6_Output_Low 0FB2                  __end_of_LCD_RW_Output 0F54  
                _MFRC522_Read_Register 0E18                             ?_LCD_Clear 0001  
           __end_of_LCD_D5_Output_High 0FBE         ??_SPI_Timer_Wait_Half_Bit_Time 0001  
                     ??_LCD_Write_Data 0002              __end_of_LCD_D7_Output_Low 0FAA  
                           main@status 0040        SPI_Transfer_Byte_MSB_First@data 0004  
              MFRC522_Request@backBits 002A                    MFRC522_ToCard@irqEn 0021  
         SPI_Transfer_Byte_MSB_First@i 0005                        _MFRC522_Request 0BBC  
                     _LCD_Write_String 0CB2                          ?_SPI_Transfer 0007  
                  start_initialization 0F18                      ?_MFRC522_Anticoll 0026  
           __end_of_LCD_D6_Output_High 0FB6                     ??_MFRC522_Anticoll 0028  
                    MFRC522_Anticoll@i 002C                  __end_of_LCD_Write_Cmd 0D7E  
  __end_of_SPI_Transfer_Byte_MSB_First 0ADC            _SPI_Transfer_Byte_MSB_First 0A56  
                      _SPI_MOSI_Output 0F34                     _LCD_Registers_Init 09C4  
                       ??_SPI_Transfer 000A                 MFRC522_Antenna_On@data 0016  
               ?_MFRC522_Read_Register 0001  __end_of_LCD_Write_Nibble_To_Data_Pins 0BBC  
        _LCD_Write_Nibble_To_Data_Pins 0B50                   _SPI_MOSI_Output_High 0F96  
                  ?_LCD_Registers_Init 0001                            ??_LCD_Clear 0004  
           __end_of_LCD_D7_Output_High 0FAE                 MFRC522_Anticoll@serNum 0026  
               MFRC522_Anticoll@status 002B                     _SPI_CS_Output_High 0F9E  
                 ??_LCD_Registers_Init 0004                __end_of_MFRC522_Request 0C22  
           MFRC522_Write_Register@addr 000C             MFRC522_Write_Register@data 000D  
                  ?_SPI_CS_Output_High 0001    __end_of_MFRC522_Modify_Register_Bit 0B50  
          _MFRC522_Modify_Register_Bit 0ADC                            __smallconst 0600  
                ?_SPI_MOSI_Output_High 0001               __end_of_LCD_E_Output_Low 0FCE  
                 ??_SPI_CS_Output_High 0001                               _LCD_Init 0DF2  
                   _LCD_RS_Output_High 0FA2                __end_of_SPI_MOSI_Output 0F3C  
                   _LCD_D4_Output_High 0FC2             __end_of_SPI_SCK_Output_Low 0F8E  
                  ?_LCD_RS_Output_High 0001                               _SPI_Init 0F22  
                  ?_LCD_D4_Output_High 0001         SPI_Transfer_Byte_MSB_First@val 0003  
                       _MFRC522_ToCard 0618         ?_LCD_Write_Nibble_To_Data_Pins 0001  
            MFRC522_Read_Register@addr 000B              MFRC522_Read_Register@data 000C  
                 ??_LCD_RS_Output_High 0001               __end_of_LCD_Write_String 0CF6  
                 ??_LCD_D4_Output_High 0001                         _SPI_MISO_Input 0F3C  
                       _SPI_MISO_State 0EF4                   __end_of_SPI_Transfer 0CB2  
                             __Hrparam 0000                       ?_MFRC522_Request 0026  
                             __Lrparam 0000                     _LCD_D5_Output_High 0FBA  
                       _SPI_SCK_Output 0F2C                    _SPI_MOSI_Output_Low 0F92  
                  ?_LCD_D5_Output_High 0001                 ??_SPI_MOSI_Output_High 0001  
               __end_of_MFRC522_ToCard 087E                          _LCD_D4_Output 0F7C  
                             __ptext10 0D7E                               __ptext11 0DBA  
                             __ptext20 0E5C                               __ptext12 0BBC  
                             __ptext21 0E7C                               __ptext13 087E  
                             __ptext30 0CF6                               __ptext22 0F8A  
                             __ptext14 0618                               __ptext31 0FA2  
                             __ptext23 0F8E                               __ptext15 0ADC  
                             __ptext40 0F74                               __ptext32 0DF2  
                             __ptext24 0F92                               __ptext16 0E3C  
                             __ptext41 0F7C                               __ptext33 09C4  
                             __ptext25 0F96                               __ptext17 0E18  
                             __ptext50 0FBA                               __ptext42 0ED8  
                             __ptext34 0EBA                               __ptext26 0EF4  
                             __ptext18 0C6C                               __ptext51 0FBE  
                             __ptext43 0D3A                               __ptext35 0F4C  
                             __ptext27 0F9A                               __ptext19 0A56  
                             __ptext52 0FC2                               __ptext44 0B50  
                             __ptext36 0F54                               __ptext28 0F9E  
                             __ptext53 0FC6                               __ptext45 0FA6  
                             __ptext37 0F5C                               __ptext29 0CB2  
                             __ptext54 0FCA                               __ptext46 0FAA  
                             __ptext38 0F64                               __ptext55 0FCE  
                             __ptext47 0FAE                               __ptext39 0F6C  
                             __ptext48 0FB2                               __ptext49 0FB6  
                        _LCD_D5_Output 0F74                          _LCD_D6_Output 0F6C  
                        _LCD_D7_Output 0F64                 __end_of_SPI_MISO_Input 0F44  
               __end_of_SPI_MISO_State 0F0C                   ?_SPI_MOSI_Output_Low 0001  
                 ??_LCD_D5_Output_High 0001                       ?_SPI_MOSI_Output 0001  
                             isa$xinst 000000                     _LCD_D6_Output_High 0FB2  
                        _SPI_GPIO_Init 0E9C                          _LCD_GPIO_Init 0EBA  
               __end_of_SPI_SCK_Output 0F34   __end_of_SPI_Timer_Wait_Half_Bit_Time 0E9C  
         _SPI_Timer_Wait_Half_Bit_Time 0E7C                ??_MFRC522_Read_Register 000B  
                  ?_LCD_D6_Output_High 0001                          _MFRC522_Reset 0F0C  
       MFRC522_Modify_Register_Bit@val 0010                          _SPI_CS_Output 0F44  
                      ?_MFRC522_ToCard 0015                         ?_LCD_D4_Output 0001  
                       ?_LCD_D5_Output 0001                         ?_LCD_D6_Output 0001  
                       ?_LCD_D7_Output 0001                        ?_SPI_MISO_Input 0001  
                ??_SPI_MOSI_Output_Low 0001                        ?_SPI_MISO_State 0001  
                 ??_LCD_D6_Output_High 0001               ??_MFRC522_Write_Register 000C  
                     SPI_Transfer@data 0007                      _LCD_E_Output_High 0FCE  
                       ?_SPI_GPIO_Init 0001                     ?_LCD_E_Output_High 0001  
                       ?_LCD_GPIO_Init 0001                     _LCD_D7_Output_High 0FAA  
                      ?_SPI_SCK_Output 0001                         ?_MFRC522_Reset 0001  
           __end_of_MFRC522_Detect_Tag 0DF2                    ??_LCD_E_Output_High 0001  
                  ?_LCD_D7_Output_High 0001                         ?_SPI_CS_Output 0001  
                        _LCD_RS_Output 0F54             __end_of_MFRC522_Antenna_On 0DBA  
                    ?_LCD_E_Output_Low 0001                          _LCD_RW_Output 0F4C  
                        ?_MFRC522_Init 0001                     ??_LCD_E_Output_Low 0001  
            __end_of_LCD_E_Output_High 0FD2                   ??_LCD_D7_Output_High 0001  
                        ?_LCD_E_Output 0001  
